atl_ini
_fini
_init
PMI_Abort
PMI_Barrier
PMI_Finalize
PMI_Get_rank
PMI_Get_size
PMI_Get_universe_size
PMI_Init
PMI_Initialized
PMI_KVS_Commit
PMI_KVS_Get
PMI_KVS_Get_key_length_max
PMI_KVS_Get_my_name
PMI_KVS_Get_name_length_max
PMI_KVS_Get_value_length_max
PMI_KVS_Put
PMI_Lookup_name
PMI_Publish_name
PMI_Spawn_multiple
PMI_Unpublish_name
_ZN3ccl11from_stringERKNSt7__cxx1112basic_stringIcSt11char_traitsIcESaIcEEE
_ZN3ccl18generic_event_typeILNS_2v115cl_backend_typeE3EE3getEv
_ZN3ccl18generic_event_typeILNS_2v115cl_backend_typeE3EEC1EN2cl4sycl5eventE
_ZN3ccl18generic_event_typeILNS_2v115cl_backend_typeE3EEC2EN2cl4sycl5eventE
_ZN3ccl19generic_device_typeILNS_2v115cl_backend_typeE3EE3getEv
_ZN3ccl19generic_device_typeILNS_2v115cl_backend_typeE3EEC1ERKN2cl4sycl6deviceE
_ZN3ccl19generic_device_typeILNS_2v115cl_backend_typeE3EEC1ESt5tupleIJjjjEEN2cl4sycl4info11device_typeE
_ZN3ccl19generic_device_typeILNS_2v115cl_backend_typeE3EEC2ERKN2cl4sycl6deviceE
_ZN3ccl19generic_device_typeILNS_2v115cl_backend_typeE3EEC2ESt5tupleIJjjjEEN2cl4sycl4info11device_typeE
_ZN3ccl19generic_stream_typeILNS_2v115cl_backend_typeE3EE3getEv
_ZN3ccl19generic_stream_typeILNS_2v115cl_backend_typeE3EEC1EN2cl4sycl5queueE
_ZN3ccl19generic_stream_typeILNS_2v115cl_backend_typeE3EEC2EN2cl4sycl5queueE
_ZN3ccl20generic_context_typeILNS_2v115cl_backend_typeE3EE3getEv
_ZN3ccl20generic_context_typeILNS_2v115cl_backend_typeE3EEC1EN2cl4sycl7contextE
_ZN3ccl20generic_context_typeILNS_2v115cl_backend_typeE3EEC1Ev
_ZN3ccl20generic_context_typeILNS_2v115cl_backend_typeE3EEC2EN2cl4sycl7contextE
_ZN3ccl20generic_context_typeILNS_2v115cl_backend_typeE3EEC2Ev
_ZN3ccl21generic_platform_typeILNS_2v115cl_backend_typeE3EE3getEv
_ZN3ccl21generic_platform_typeILNS_2v115cl_backend_typeE3EEC1ERN2cl4sycl8platformE
_ZN3ccl21generic_platform_typeILNS_2v115cl_backend_typeE3EEC2ERN2cl4sycl8platformE
_ZN3ccl2v110allgathervEPKvmPvRKSt6vectorImSaImEENS0_8datatypeERKNS0_12communicatorERKNS0_15allgatherv_attrERKS4_INS0_5eventESaISG_EE
_ZN3ccl2v110allgathervEPKvmPvRKSt6vectorImSaImEENS0_8datatypeERKNS0_12communicatorERKNS0_6streamERKNS0_15allgatherv_attrERKS4_INS0_5eventESaISJ_EE
_ZN3ccl2v110allgathervEPKvmRKSt6vectorIPvSaIS4_EERKS3_ImSaImEENS0_8datatypeERKNS0_12communicatorERKNS0_15allgatherv_attrERKS3_INS0_5eventESaISK_EE
_ZN3ccl2v110allgathervEPKvmRKSt6vectorIPvSaIS4_EERKS3_ImSaImEENS0_8datatypeERKNS0_12communicatorERKNS0_6streamERKNS0_15allgatherv_attrERKS3_INS0_5eventESaISN_EE
_ZN3ccl2v110create_kvsERKSt5arrayIcLm256EERKNS0_8kvs_attrE
_ZN3ccl2v111reduce_attraSEOS1_
_ZN3ccl2v111reduce_attraSERKS1_
_ZN3ccl2v111reduce_attrC1EOS1_
_ZN3ccl2v111reduce_attrC1ERKNS0_15library_versionE
_ZN3ccl2v111reduce_attrC1ERKS1_
_ZN3ccl2v111reduce_attrC2EOS1_
_ZN3ccl2v111reduce_attrC2ERKNS0_15library_versionE
_ZN3ccl2v111reduce_attrC2ERKS1_
_ZN3ccl2v111reduce_attrD1Ev
_ZN3ccl2v111reduce_attrD2Ev
_ZN3ccl2v112barrier_attraSEOS1_
_ZN3ccl2v112barrier_attraSERKS1_
_ZN3ccl2v112barrier_attrC1EOS1_
_ZN3ccl2v112barrier_attrC1ERKNS0_15library_versionE
_ZN3ccl2v112barrier_attrC1ERKS1_
_ZN3ccl2v112barrier_attrC2EOS1_
_ZN3ccl2v112barrier_attrC2ERKNS0_15library_versionE
_ZN3ccl2v112barrier_attrC2ERKS1_
_ZN3ccl2v112barrier_attrD1Ev
_ZN3ccl2v112barrier_attrD2Ev
_ZN3ccl2v112communicator5splitERKNS0_15comm_split_attrE
_ZN3ccl2v112communicatoraSEOS1_
_ZN3ccl2v112communicatorC1EOS1_
_ZN3ccl2v112communicatorC1EOSt10shared_ptrINS_22communicator_interfaceEE
_ZN3ccl2v112communicatorC2EOS1_
_ZN3ccl2v112communicatorC2EOSt10shared_ptrINS_22communicator_interfaceEE
_ZN3ccl2v112communicatorD1Ev
_ZN3ccl2v112communicatorD2Ev
_ZN3ccl2v113alltoall_attraSEOS1_
_ZN3ccl2v113alltoall_attraSERKS1_
_ZN3ccl2v113alltoall_attrC1EOS1_
_ZN3ccl2v113alltoall_attrC1ERKNS0_15library_versionE
_ZN3ccl2v113alltoall_attrC1ERKS1_
_ZN3ccl2v113alltoall_attrC2EOS1_
_ZN3ccl2v113alltoall_attrC2ERKNS0_15library_versionE
_ZN3ccl2v113alltoall_attrC2ERKS1_
_ZN3ccl2v113alltoall_attrD1Ev
_ZN3ccl2v113alltoall_attrD2Ev
_ZN3ccl2v113create_deviceEv
_ZN3ccl2v113create_streamEv
_ZN3ccl2v113datatype_attraSEOS1_
_ZN3ccl2v113datatype_attraSERKS1_
_ZN3ccl2v113datatype_attrC1EOS1_
_ZN3ccl2v113datatype_attrC1ERKNS0_15library_versionE
_ZN3ccl2v113datatype_attrC1ERKS1_
_ZN3ccl2v113datatype_attrC2EOS1_
_ZN3ccl2v113datatype_attrC2ERKNS0_15library_versionE
_ZN3ccl2v113datatype_attrC2ERKS1_
_ZN3ccl2v113datatype_attrD1Ev
_ZN3ccl2v113datatype_attrD2Ev
_ZN3ccl2v114allreduce_attraSEOS1_
_ZN3ccl2v114allreduce_attraSERKS1_
_ZN3ccl2v114allreduce_attrC1EOS1_
_ZN3ccl2v114allreduce_attrC1ERKNS0_15library_versionE
_ZN3ccl2v114allreduce_attrC1ERKS1_
_ZN3ccl2v114allreduce_attrC2EOS1_
_ZN3ccl2v114allreduce_attrC2ERKNS0_15library_versionE
_ZN3ccl2v114allreduce_attrC2ERKS1_
_ZN3ccl2v114allreduce_attrD1Ev
_ZN3ccl2v114allreduce_attrD2Ev
_ZN3ccl2v114alltoallv_attraSEOS1_
_ZN3ccl2v114alltoallv_attraSERKS1_
_ZN3ccl2v114alltoallv_attrC1EOS1_
_ZN3ccl2v114alltoallv_attrC1ERKNS0_15library_versionE
_ZN3ccl2v114alltoallv_attrC1ERKS1_
_ZN3ccl2v114alltoallv_attrC2EOS1_
_ZN3ccl2v114alltoallv_attrC2ERKNS0_15library_versionE
_ZN3ccl2v114alltoallv_attrC2ERKS1_
_ZN3ccl2v114alltoallv_attrD1Ev
_ZN3ccl2v114alltoallv_attrD2Ev
_ZN3ccl2v114broadcast_attraSEOS1_
_ZN3ccl2v114broadcast_attraSERKS1_
_ZN3ccl2v114broadcast_attrC1EOS1_
_ZN3ccl2v114broadcast_attrC1ERKNS0_15library_versionE
_ZN3ccl2v114broadcast_attrC1ERKS1_
_ZN3ccl2v114broadcast_attrC2EOS1_
_ZN3ccl2v114broadcast_attrC2ERKNS0_15library_versionE
_ZN3ccl2v114broadcast_attrC2ERKS1_
_ZN3ccl2v114broadcast_attrD1Ev
_ZN3ccl2v114broadcast_attrD2Ev
_ZN3ccl2v114create_contextEv
_ZN3ccl2v114reduce_scatterEPKvPvmNS0_8datatypeENS0_9reductionERKNS0_12communicatorERKNS0_19reduce_scatter_attrERKSt6vectorINS0_5eventESaISD_EE
_ZN3ccl2v114reduce_scatterEPKvPvmNS0_8datatypeENS0_9reductionERKNS0_12communicatorERKNS0_6streamERKNS0_19reduce_scatter_attrERKSt6vectorINS0_5eventESaISG_EE
_ZN3ccl2v115allgatherv_attraSEOS1_
_ZN3ccl2v115allgatherv_attraSERKS1_
_ZN3ccl2v115allgatherv_attrC1EOS1_
_ZN3ccl2v115allgatherv_attrC1ERKNS0_15library_versionE
_ZN3ccl2v115allgatherv_attrC1ERKS1_
_ZN3ccl2v115allgatherv_attrC2EOS1_
_ZN3ccl2v115allgatherv_attrC2ERKNS0_15library_versionE
_ZN3ccl2v115allgatherv_attrC2ERKS1_
_ZN3ccl2v115allgatherv_attrD1Ev
_ZN3ccl2v115allgatherv_attrD2Ev
_ZN3ccl2v115comm_split_attraSEOS1_
_ZN3ccl2v115comm_split_attraSERKS1_
_ZN3ccl2v115comm_split_attrC1ENS0_14ccl_empty_attrE
_ZN3ccl2v115comm_split_attrC1EOS1_
_ZN3ccl2v115comm_split_attrC1ERKNS0_15library_versionE
_ZN3ccl2v115comm_split_attrC1ERKS1_
_ZN3ccl2v115comm_split_attrC2ENS0_14ccl_empty_attrE
_ZN3ccl2v115comm_split_attrC2EOS1_
_ZN3ccl2v115comm_split_attrC2ERKNS0_15library_versionE
_ZN3ccl2v115comm_split_attrC2ERKS1_
_ZN3ccl2v115comm_split_attrD1Ev
_ZN3ccl2v115comm_split_attrD2Ev
_ZN3ccl2v115create_main_kvsERKNS0_8kvs_attrE
_ZN3ccl2v117get_datatype_sizeENS0_8datatypeE
_ZN3ccl2v117register_datatypeERKNS0_13datatype_attrE
_ZN3ccl2v119create_communicatorEiiSt10shared_ptrINS0_13kvs_interfaceEERKNS0_9comm_attrE
_ZN3ccl2v119deregister_datatypeENS0_8datatypeE
_ZN3ccl2v119get_library_versionEv
_ZN3ccl2v119reduce_scatter_attraSEOS1_
_ZN3ccl2v119reduce_scatter_attraSERKS1_
_ZN3ccl2v119reduce_scatter_attrC1EOS1_
_ZN3ccl2v119reduce_scatter_attrC1ERKNS0_15library_versionE
_ZN3ccl2v119reduce_scatter_attrC1ERKS1_
_ZN3ccl2v119reduce_scatter_attrC2EOS1_
_ZN3ccl2v119reduce_scatter_attrC2ERKNS0_15library_versionE
_ZN3ccl2v119reduce_scatter_attrC2ERKS1_
_ZN3ccl2v119reduce_scatter_attrD1Ev
_ZN3ccl2v119reduce_scatter_attrD2Ev
_ZN3ccl2v121sparse_allreduce_attr3setILNS0_24sparse_allreduce_attr_idE7EPKvEENS_6detail24ccl_api_type_attr_traitsIS3_XT_EE11return_typeERKT0_
_ZN3ccl2v121sparse_allreduce_attraSEOS1_
_ZN3ccl2v121sparse_allreduce_attraSERKS1_
_ZN3ccl2v121sparse_allreduce_attrC1EOS1_
_ZN3ccl2v121sparse_allreduce_attrC1ERKNS0_15library_versionE
_ZN3ccl2v121sparse_allreduce_attrC1ERKS1_
_ZN3ccl2v121sparse_allreduce_attrC2EOS1_
_ZN3ccl2v121sparse_allreduce_attrC2ERKNS0_15library_versionE
_ZN3ccl2v121sparse_allreduce_attrC2ERKS1_
_ZN3ccl2v121sparse_allreduce_attrD1Ev
_ZN3ccl2v121sparse_allreduce_attrD2Ev
_ZN3ccl2v13kvs3getERKNS0_6stringE
_ZN3ccl2v13kvs3setERKNS0_6stringERKSt6vectorIcSaIcEE
_ZN3ccl2v13kvs8get_implEv
_ZN3ccl2v13kvsC1ERKNS0_8kvs_attrE
_ZN3ccl2v13kvsC1ERKSt5arrayIcLm256EERKNS0_8kvs_attrE
_ZN3ccl2v13kvsC2ERKNS0_8kvs_attrE
_ZN3ccl2v13kvsC2ERKSt5arrayIcLm256EERKNS0_8kvs_attrE
_ZN3ccl2v13kvsD0Ev
_ZN3ccl2v13kvsD1Ev
_ZN3ccl2v13kvsD2Ev
_ZN3ccl2v14initERKNS0_9init_attrE
_ZN3ccl2v15event10get_nativeEv
_ZN3ccl2v15event18create_from_nativeEP9_cl_eventN2cl4sycl7contextE
_ZN3ccl2v15event18create_from_nativeERN2cl4sycl5eventE
_ZN3ccl2v15event4testEv
_ZN3ccl2v15event4waitEv
_ZN3ccl2v15event6cancelEv
_ZN3ccl2v15eventaSEOS1_
_ZN3ccl2v15eventC1EOS1_
_ZN3ccl2v15eventC1EOSt10unique_ptrINS_10event_implESt14default_deleteIS3_EE
_ZN3ccl2v15eventC1Ev
_ZN3ccl2v15eventC2EOS1_
_ZN3ccl2v15eventC2EOSt10unique_ptrINS_10event_implESt14default_deleteIS3_EE
_ZN3ccl2v15eventC2Ev
_ZN3ccl2v15eventcvbEv
_ZN3ccl2v15eventD1Ev
_ZN3ccl2v15eventD2Ev
_ZN3ccl2v16device10get_nativeEv
_ZN3ccl2v16device17build_from_paramsEv
_ZN3ccl2v16deviceaSEOS1_
_ZN3ccl2v16deviceaSERKS1_
_ZN3ccl2v16deviceC1EOS1_
_ZN3ccl2v16deviceC1EOSt10shared_ptrI15ccl_device_implE
_ZN3ccl2v16deviceC1ERKS1_
_ZN3ccl2v16deviceC2EOS1_
_ZN3ccl2v16deviceC2EOSt10shared_ptrI15ccl_device_implE
_ZN3ccl2v16deviceC2ERKS1_
_ZN3ccl2v16deviceD1Ev
_ZN3ccl2v16deviceD2Ev
_ZN3ccl2v16reduceEPKvPvmNS0_8datatypeENS0_9reductionEiRKNS0_12communicatorERKNS0_11reduce_attrERKSt6vectorINS0_5eventESaISD_EE
_ZN3ccl2v16reduceEPKvPvmNS0_8datatypeENS0_9reductionEiRKNS0_12communicatorERKNS0_6streamERKNS0_11reduce_attrERKSt6vectorINS0_5eventESaISG_EE
_ZN3ccl2v16stream10get_nativeEv
_ZN3ccl2v16stream17build_from_paramsEv
_ZN3ccl2v16streamaSEOS1_
_ZN3ccl2v16streamaSERKS1_
_ZN3ccl2v16streamC1EOS1_
_ZN3ccl2v16streamC1EOSt10shared_ptrI10ccl_streamE
_ZN3ccl2v16streamC1ERKNS0_15library_versionE
_ZN3ccl2v16streamC1ERKS1_
_ZN3ccl2v16streamC2EOS1_
_ZN3ccl2v16streamC2EOSt10shared_ptrI10ccl_streamE
_ZN3ccl2v16streamC2ERKNS0_15library_versionE
_ZN3ccl2v16streamC2ERKS1_
_ZN3ccl2v16streamD1Ev
_ZN3ccl2v16streamD2Ev
_ZN3ccl2v17barrierERKNS0_12communicatorERKNS0_12barrier_attrERKSt6vectorINS0_5eventESaIS8_EE
_ZN3ccl2v17barrierERKNS0_12communicatorERKNS0_6streamERKNS0_12barrier_attrERKSt6vectorINS0_5eventESaISB_EE
_ZN3ccl2v17context10get_nativeEv
_ZN3ccl2v17context17build_from_paramsEv
_ZN3ccl2v17contextaSEOS1_
_ZN3ccl2v17contextaSERKS1_
_ZN3ccl2v17contextC1EOS1_
_ZN3ccl2v17contextC1EOSt10shared_ptrI16ccl_context_implE
_ZN3ccl2v17contextC1ERKS1_
_ZN3ccl2v17contextC2EOS1_
_ZN3ccl2v17contextC2EOSt10shared_ptrI16ccl_context_implE
_ZN3ccl2v17contextC2ERKS1_
_ZN3ccl2v17contextD1Ev
_ZN3ccl2v17contextD2Ev
_ZN3ccl2v18alltoallEPKvPvmNS0_8datatypeERKNS0_12communicatorERKNS0_13alltoall_attrERKSt6vectorINS0_5eventESaISC_EE
_ZN3ccl2v18alltoallEPKvPvmNS0_8datatypeERKNS0_12communicatorERKNS0_6streamERKNS0_13alltoall_attrERKSt6vectorINS0_5eventESaISF_EE
_ZN3ccl2v18alltoallERKSt6vectorIPvSaIS2_EES6_mNS0_8datatypeERKNS0_12communicatorERKNS0_6streamERKNS0_13alltoall_attrERKS1_INS0_5eventESaISH_EE
_ZN3ccl2v18kvs_attraSEOS1_
_ZN3ccl2v18kvs_attraSERKS1_
_ZN3ccl2v18kvs_attrC1ENS0_14ccl_empty_attrE
_ZN3ccl2v18kvs_attrC1EOS1_
_ZN3ccl2v18kvs_attrC1ERKNS0_15library_versionE
_ZN3ccl2v18kvs_attrC1ERKS1_
_ZN3ccl2v18kvs_attrC2ENS0_14ccl_empty_attrE
_ZN3ccl2v18kvs_attrC2EOS1_
_ZN3ccl2v18kvs_attrC2ERKNS0_15library_versionE
_ZN3ccl2v18kvs_attrC2ERKS1_
_ZN3ccl2v18kvs_attrD1Ev
_ZN3ccl2v18kvs_attrD2Ev
_ZN3ccl2v19allreduceEPKvPvmNS0_8datatypeENS0_9reductionERKNS0_12communicatorERKNS0_14allreduce_attrERKSt6vectorINS0_5eventESaISD_EE
_ZN3ccl2v19allreduceEPKvPvmNS0_8datatypeENS0_9reductionERKNS0_12communicatorERKNS0_6streamERKNS0_14allreduce_attrERKSt6vectorINS0_5eventESaISG_EE
_ZN3ccl2v19alltoallvEPKvRKSt6vectorImSaImEEPvS7_NS0_8datatypeERKNS0_12communicatorERKNS0_14alltoallv_attrERKS3_INS0_5eventESaISG_EE
_ZN3ccl2v19alltoallvEPKvRKSt6vectorImSaImEEPvS7_NS0_8datatypeERKNS0_12communicatorERKNS0_6streamERKNS0_14alltoallv_attrERKS3_INS0_5eventESaISJ_EE
_ZN3ccl2v19alltoallvERKSt6vectorIPvSaIS2_EERKS1_ImSaImEES6_SA_NS0_8datatypeERKNS0_12communicatorERKNS0_14alltoallv_attrERKS1_INS0_5eventESaISI_EE
_ZN3ccl2v19alltoallvERKSt6vectorIPvSaIS2_EERKS1_ImSaImEES6_SA_NS0_8datatypeERKNS0_12communicatorERKNS0_6streamERKNS0_14alltoallv_attrERKS1_INS0_5eventESaISL_EE
_ZN3ccl2v19broadcastEPvmNS0_8datatypeEiRKNS0_12communicatorERKNS0_14broadcast_attrERKSt6vectorINS0_5eventESaISA_EE
_ZN3ccl2v19broadcastEPvmNS0_8datatypeEiRKNS0_12communicatorERKNS0_6streamERKNS0_14broadcast_attrERKSt6vectorINS0_5eventESaISD_EE
_ZN3ccl2v19comm_attraSEOS1_
_ZN3ccl2v19comm_attraSERKS1_
_ZN3ccl2v19comm_attrC1ENS0_14ccl_empty_attrE
_ZN3ccl2v19comm_attrC1EOS1_
_ZN3ccl2v19comm_attrC1ERKNS0_15library_versionE
_ZN3ccl2v19comm_attrC1ERKS1_
_ZN3ccl2v19comm_attrC2ENS0_14ccl_empty_attrE
_ZN3ccl2v19comm_attrC2EOS1_
_ZN3ccl2v19comm_attrC2ERKNS0_15library_versionE
_ZN3ccl2v19comm_attrC2ERKS1_
_ZN3ccl2v19comm_attrD1Ev
_ZN3ccl2v19comm_attrD2Ev
_ZN3ccl2v19init_attraSEOS1_
_ZN3ccl2v19init_attraSERKS1_
_ZN3ccl2v19init_attrC1EOS1_
_ZN3ccl2v19init_attrC1ERKNS0_15library_versionE
_ZN3ccl2v19init_attrC1ERKS1_
_ZN3ccl2v19init_attrC2EOS1_
_ZN3ccl2v19init_attrC2ERKNS0_15library_versionE
_ZN3ccl2v19init_attrC2ERKS1_
_ZN3ccl2v19init_attrD1Ev
_ZN3ccl2v19init_attrD2Ev
_ZN3ccl6detail11environment13create_streamEN2cl4sycl6deviceE
_ZN3ccl6detail11environment13create_streamEN2cl4sycl6deviceENS3_7contextE
_ZN3ccl6detail11environment19get_library_versionEv
_ZN3ccl6detail11environment8instanceEv
_ZN3ccl6detail11environmentC1Ev
_ZN3ccl6detail11environmentC2Ev
_ZN3ccl6detail11environmentD1Ev
_ZN3ccl6detail11environmentD2Ev
_ZN3ccl7preview16sparse_allreduceEPKvmS2_mPvmS3_mNS_2v18datatypeES5_NS4_9reductionERKNS4_12communicatorERKNS4_21sparse_allreduce_attrERKSt6vectorINS4_5eventESaISE_EE
_ZN3ccl7preview16sparse_allreduceEPKvmS2_mPvmS3_mNS_2v18datatypeES5_NS4_9reductionERKNS4_12communicatorERKNS4_6streamERKNS4_21sparse_allreduce_attrERKSt6vectorINS4_5eventESaISH_EE
_ZN3ccl7preview19create_communicatorEiSt10shared_ptrINS_2v113kvs_interfaceEERKNS2_9comm_attrE
_ZN3ccl7preview19create_communicatorERKNS_2v19comm_attrE
_ZN3ccl9to_stringB5cxx11ERKSt3mapImSt8multisetISt5tupleIJjjjEESt4lessIS3_ESaIS3_EES4_ImESaISt4pairIKmS7_EEE
_ZN3ccl9to_stringB5cxx11ERKSt8multisetISt5tupleIJjjjEESt4lessIS2_ESaIS2_EE
_ZN3ccl9to_stringERKSt3mapINSt7__cxx1112basic_stringIcSt11char_traitsIcESaIcEEES0_ImSt8multisetISt5tupleIJjjjEESt4lessIS9_ESaIS9_EESA_ImESaISt4pairIKmSD_EEESA_IS6_ESaISF_IKS6_SJ_EEE
_ZN6native10ccl_device11get_handlesERKNS_17ccl_device_driverERKSt8multisetISt5tupleIJjjjEESt4lessIS6_ESaIS6_EE
_ZN6native10ccl_device12get_cmd_listESt10shared_ptrINS_11ccl_contextEERK23_ze_command_list_desc_t
_ZN6native10ccl_device12get_contextsEv
_ZN6native10ccl_device13create_moduleERK17_ze_module_desc_tmSt10shared_ptrINS_11ccl_contextEE
_ZN6native10ccl_device13get_cmd_queueERK24_ze_command_queue_desc_tSt10shared_ptrINS_11ccl_contextEE
_ZN6native10ccl_device13get_subdeviceERKSt5tupleIJjjjEE
_ZN6native10ccl_device14get_ipc_memoryEOSt10shared_ptrINS_7cl_baseI20_ze_ipc_mem_handle_tS0_NS_11ccl_contextEEEES1_IS4_E
_ZN6native10ccl_device14get_subdevicesEv
_ZN6native10ccl_device15create_cmd_listESt10shared_ptrINS_11ccl_contextEERK23_ze_command_list_desc_t
_ZN6native10ccl_device16create_cmd_queueESt10shared_ptrINS_11ccl_contextEERK24_ze_command_queue_desc_t
_ZN6native10ccl_device18device_free_memoryEPvRP20_ze_context_handle_t
_ZN6native10ccl_device19device_alloc_memoryEmmRK27_ze_device_mem_alloc_desc_tRK25_ze_host_mem_alloc_desc_tSt10shared_ptrINS_11ccl_contextEE
_ZN6native10ccl_device19get_default_contextEv
_ZN6native10ccl_device21get_default_list_descEv
_ZN6native10ccl_device22get_default_queue_descEv
_ZN6native10ccl_device23get_assoc_device_handleEPKvPKNS_17ccl_device_driverESt10shared_ptrINS_11ccl_contextEE
_ZN6native10ccl_device24create_ipc_memory_handleEPvSt10shared_ptrINS_11ccl_contextEE
_ZN6native10ccl_device25restore_shared_ipc_memoryEOSt10shared_ptrINS_7cl_baseI20_ze_ipc_mem_handle_tS0_NS_11ccl_contextEEEES1_IS4_E
_ZN6native10ccl_device26device_alloc_shared_memoryEmmRK25_ze_host_mem_alloc_desc_tRK27_ze_device_mem_alloc_desc_tSt10shared_ptrINS_11ccl_contextEE
_ZN6native10ccl_device26get_default_mem_alloc_descEv
_ZN6native10ccl_device27get_default_host_alloc_descEv
_ZN6native10ccl_device31create_shared_ipc_memory_handleEPvSt10shared_ptrINS_11ccl_contextEE
_ZN6native10ccl_device6createEP19_ze_device_handle_tOSt8weak_ptrINS_17ccl_device_driverEERKSt8multisetISt5tupleIJjjjEESt4lessIS9_ESaIS9_EE
_ZN6native10ccl_device9get_fenceERKNS_7cl_baseIP26_ze_command_queue_handle_tS0_NS_11ccl_contextEEESt10shared_ptrIS4_E
_ZN6native10ccl_device9on_deleteER20_ze_ipc_mem_handle_tRP20_ze_context_handle_t
_ZN6native10ccl_device9on_deleteERNS_16ip_memory_elem_tERP20_ze_context_handle_t
_ZN6native10ccl_device9on_deleteERP19_ze_device_handle_tRP20_ze_context_handle_t
_ZN6native10ccl_device9on_deleteERP19_ze_module_handle_tRP20_ze_context_handle_t
_ZN6native10ccl_device9on_deleteERP25_ze_command_list_handle_tRP20_ze_context_handle_t
_ZN6native10ccl_device9on_deleteERP26_ze_command_queue_handle_tRP20_ze_context_handle_t
_ZN6native10ccl_deviceD0Ev
_ZN6native10ccl_deviceD1Ev
_ZN6native10ccl_deviceD2Ev
_ZN6native10get_driverEm
_ZN6native12get_platformEv
_ZN6native13ccl_subdevice11deserializeEPPKhRmRSt10shared_ptrINS_19ccl_device_platformEE
_ZN6native13ccl_subdevice11get_handlesERKNS_10ccl_deviceERKSt8multisetISt5tupleIJjjjEESt4lessIS6_ESaIS6_EE
_ZN6native13ccl_subdevice6createEP19_ze_device_handle_tOSt8weak_ptrINS_10ccl_deviceEEOS3_INS_17ccl_device_driverEE
_ZN6native13ccl_subdeviceC1EP19_ze_device_handle_tOSt8weak_ptrINS_10ccl_deviceEEOS3_INS_17ccl_device_driverEEOS3_INS_18ccl_context_holderEE
_ZN6native13ccl_subdeviceC1EP19_ze_device_handle_tOSt8weak_ptrINS_10ccl_deviceEEOS3_INS_17ccl_device_driverEEOS3_INS_18ccl_context_holderEESt17integral_constantIbLb0EE
_ZN6native13ccl_subdeviceC2EP19_ze_device_handle_tOSt8weak_ptrINS_10ccl_deviceEEOS3_INS_17ccl_device_driverEEOS3_INS_18ccl_context_holderEE
_ZN6native13ccl_subdeviceC2EP19_ze_device_handle_tOSt8weak_ptrINS_10ccl_deviceEEOS3_INS_17ccl_device_driverEEOS3_INS_18ccl_context_holderEESt17integral_constantIbLb0EE
_ZN6native13ccl_subdeviceD0Ev
_ZN6native13ccl_subdeviceD1Ev
_ZN6native13ccl_subdeviceD2Ev
_ZN6native17ccl_device_driver10get_deviceERKSt5tupleIJjjjEE
_ZN6native17ccl_device_driver14create_contextEv
_ZN6native17ccl_device_driver15get_device_maskERKSt8multisetISt5tupleIJjjjEESt4lessIS3_ESaIS3_EE
_ZN6native17ccl_device_driver18create_device_maskERKNSt7__cxx1112basic_stringIcSt11char_traitsIcESaIcEEESt13_Ios_Fmtflags
_ZN6native17ccl_device_driver18get_device_indicesERKSt6bitsetILm4EE
_ZN6native17ccl_device_driver26create_context_from_handleEP20_ze_context_handle_t
_ZN6native17ccl_device_driver6createEP19_ze_driver_handle_tjOSt8weak_ptrINS_19ccl_device_platformEERKSt6bitsetILm4EE
_ZN6native17ccl_device_driver6createEP19_ze_driver_handle_tjOSt8weak_ptrINS_19ccl_device_platformEERKSt8multisetISt5tupleIJjjjEESt4lessIS9_ESaIS9_EE
_ZN6native17ccl_device_driver9on_deleteERP19_ze_device_handle_tRP20_ze_context_handle_t
_ZN6native17ccl_device_driverC1EP19_ze_driver_handle_tjOSt8weak_ptrINS_19ccl_device_platformEEOS3_INS_18ccl_context_holderEE
_ZN6native17ccl_device_driverC2EP19_ze_driver_handle_tjOSt8weak_ptrINS_19ccl_device_platformEEOS3_INS_18ccl_context_holderEE
_ZN6native19ccl_device_platform10get_deviceERKSt5tupleIJjjjEE
_ZN6native19ccl_device_platform10get_driverEj
_ZN6native19ccl_device_platform11deserializeEPPKhRmRSt10shared_ptrIS0_E
_ZN6native19ccl_device_platform12init_driversERKSt8multisetISt5tupleIJjjjEESt4lessIS3_ESaIS3_EE
_ZN6native19ccl_device_platform21get_platform_contextsEv
_ZN6native19ccl_device_platform6createERKSt8multisetISt5tupleIJjjjEESt4lessIS3_ESaIS3_EE
_ZN6native19ccl_device_platform9on_deleteERP19_ze_driver_handle_tRP20_ze_context_handle_t
_ZN6native19ccl_device_platform9on_deleteERP20_ze_context_handle_tS3_
_ZN6native19ccl_device_platformC1Em
_ZN6native19ccl_device_platformC2Em
_ZN6native6detail33copy_memory_to_device_sync_unsafeEPvPKvmSt8weak_ptrINS_10ccl_deviceEESt10shared_ptrINS_11ccl_contextEE
_ZN6native9to_stringB5cxx11E12_ze_result_t
_ZN6native9to_stringB5cxx11E17_ze_device_type_t
_ZN6native9to_stringB5cxx11E17_ze_memory_type_t
_ZN6native9to_stringB5cxx11ERK20_ze_ipc_mem_handle_t
_ZN6native9to_stringB5cxx11ERK27_ze_device_mem_alloc_desc_t
_ZN6native9to_stringB5cxx11ERK27_ze_device_p2p_properties_t
_ZN6native9to_stringB5cxx11ERK34_ze_memory_allocation_properties_t
_ZN6native9to_stringERK23_ze_device_properties_tRKNSt7__cxx1112basic_stringIcSt11char_traitsIcESaIcEEE
_ZN6native9to_stringERK30_ze_device_memory_properties_tRKNSt7__cxx1112basic_stringIcSt11char_traitsIcESaIcEEE
_ZN6native9to_stringERK31_ze_device_compute_properties_tRKNSt7__cxx1112basic_stringIcSt11char_traitsIcESaIcEEE
_ZN6native9to_stringERK37_ze_device_memory_access_properties_tRKNSt7__cxx1112basic_stringIcSt11char_traitsIcESaIcEEE
_ZN6nativelsERSoRKNS_13ccl_subdeviceE
_ZNK3ccl18generic_event_typeILNS_2v115cl_backend_typeE3EE3getEv
_ZNK3ccl19generic_device_typeILNS_2v115cl_backend_typeE3EE3getEv
_ZNK3ccl19generic_device_typeILNS_2v115cl_backend_typeE3EE6get_idEv
_ZNK3ccl19generic_stream_typeILNS_2v115cl_backend_typeE3EE3getEv
_ZNK3ccl20generic_context_typeILNS_2v115cl_backend_typeE3EE3getEv
_ZNK3ccl21generic_platform_typeILNS_2v115cl_backend_typeE3EE3getEv
_ZNK3ccl2v112communicator10get_deviceEv
_ZNK3ccl2v112communicator11get_contextEv
_ZNK3ccl2v112communicator4rankEv
_ZNK3ccl2v112communicator4sizeEv
_ZNK3ccl2v121sparse_allreduce_attr3getILNS0_24sparse_allreduce_attr_idE7EEERKNS_6detail24ccl_api_type_attr_traitsIS3_XT_EE11return_typeEv
_ZNK3ccl2v13kvs11get_addressEv
_ZNK3ccl2v15event10get_nativeEv
_ZNK3ccl2v15eventeqERKS1_
_ZNK3ccl2v15eventneERKS1_
_ZNK3ccl2v16device10get_nativeEv
_ZNK3ccl2v16deviceeqERKS1_
_ZNK3ccl2v16deviceltERKS1_
_ZNK3ccl2v16deviceneERKS1_
_ZNK3ccl2v16stream10get_nativeEv
_ZNK3ccl2v17context10get_nativeEv
_ZNK3ccl2v17contexteqERKS1_
_ZNK3ccl2v17contextltERKS1_
_ZNK3ccl2v17contextneERKS1_
_ZNK6native10ccl_device12is_subdeviceEv
_ZNK6native10ccl_device13get_device_idEv
_ZNK6native10ccl_device13get_subdeviceERKSt5tupleIJjjjEE
_ZNK6native10ccl_device14get_subdevicesEv
_ZNK6native10ccl_device15get_device_pathEv
_ZNK6native10ccl_device18get_p2p_propertiesERKS0_
_ZNK6native10ccl_device21get_device_propertiesEv
_ZNK6native10ccl_device9to_stringERKNSt7__cxx1112basic_stringIcSt11char_traitsIcESaIcEEE
_ZNK6native13ccl_subdevice12is_subdeviceEv
_ZNK6native13ccl_subdevice13get_device_idEv
_ZNK6native13ccl_subdevice15get_device_pathEv
_ZNK6native13ccl_subdevice9serializeERSt6vectorIhSaIhEEmm
_ZNK6native13ccl_subdevice9to_stringERKNSt7__cxx1112basic_stringIcSt11char_traitsIcESaIcEEE
_ZNK6native17ccl_device_driver10get_deviceERKSt5tupleIJjjjEE
_ZNK6native17ccl_device_driver11get_devicesEv
_ZNK6native17ccl_device_driver13get_driver_idEv
_ZNK6native17ccl_device_driver14get_propertiesEv
_ZNK6native17ccl_device_driver9to_stringERKNSt7__cxx1112basic_stringIcSt11char_traitsIcESaIcEEE
_ZNK6native19ccl_device_platform10get_deviceERKSt5tupleIJjjjEE
_ZNK6native19ccl_device_platform10get_driverEj
_ZNK6native19ccl_device_platform11get_driversEv
_ZNK6native19ccl_device_platform5cloneEmi
_ZNK6native19ccl_device_platform6get_idEv
_ZNK6native19ccl_device_platform7get_pidEv
_ZNK6native19ccl_device_platform9serializeERSt6vectorIhSaIhEEmm
_ZNK6native19ccl_device_platform9to_stringB5cxx11Ev
