_ZN3ccl2v110allgathervEPKvmPvRKSt6vectorImSaImEENS0_8datatypeERKNS0_12communicatorERKNS0_15allgatherv_attrERKS4_INS0_5eventESaISG_EE
_ZN3ccl2v110allgathervEPKvmPvRKSt6vectorImSaImEENS0_8datatypeERKNS0_12communicatorERKNS0_6streamERKNS0_15allgatherv_attrERKS4_INS0_5eventESaISJ_EE
_ZN3ccl2v110allgathervEPKvmRKSt6vectorIPvSaIS4_EERKS3_ImSaImEENS0_8datatypeERKNS0_12communicatorERKNS0_15allgatherv_attrERKS3_INS0_5eventESaISK_EE
_ZN3ccl2v110allgathervEPKvmRKSt6vectorIPvSaIS4_EERKS3_ImSaImEENS0_8datatypeERKNS0_12communicatorERKNS0_6streamERKNS0_15allgatherv_attrERKS3_INS0_5eventESaISN_EE
_ZN3ccl2v110allgathervIaNS0_5eventEEES2_PKT_mPS3_RKSt6vectorImSaImEERKNS0_12communicatorERKNS0_15allgatherv_attrERKS7_IS2_SaIS2_EE
_ZN3ccl2v110allgathervIaNS0_5eventEEES2_PKT_mPS3_RKSt6vectorImSaImEERKNS0_12communicatorERKNS0_6streamERKNS0_15allgatherv_attrERKS7_IS2_SaIS2_EE
_ZN3ccl2v110allgathervIaNS0_5eventEEES2_PKT_mRSt6vectorIPS3_SaIS7_EERKS6_ImSaImEERKNS0_12communicatorERKNS0_15allgatherv_attrERKS6_IS2_SaIS2_EE
_ZN3ccl2v110allgathervIaNS0_5eventEEES2_PKT_mRSt6vectorIPS3_SaIS7_EERKS6_ImSaImEERKNS0_12communicatorERKNS0_6streamERKNS0_15allgatherv_attrERKS6_IS2_SaIS2_EE
_ZN3ccl2v110allgathervIdNS0_5eventEEES2_PKT_mPS3_RKSt6vectorImSaImEERKNS0_12communicatorERKNS0_15allgatherv_attrERKS7_IS2_SaIS2_EE
_ZN3ccl2v110allgathervIdNS0_5eventEEES2_PKT_mPS3_RKSt6vectorImSaImEERKNS0_12communicatorERKNS0_6streamERKNS0_15allgatherv_attrERKS7_IS2_SaIS2_EE
_ZN3ccl2v110allgathervIdNS0_5eventEEES2_PKT_mRSt6vectorIPS3_SaIS7_EERKS6_ImSaImEERKNS0_12communicatorERKNS0_15allgatherv_attrERKS6_IS2_SaIS2_EE
_ZN3ccl2v110allgathervIdNS0_5eventEEES2_PKT_mRSt6vectorIPS3_SaIS7_EERKS6_ImSaImEERKNS0_12communicatorERKNS0_6streamERKNS0_15allgatherv_attrERKS6_IS2_SaIS2_EE
_ZN3ccl2v110allgathervIfNS0_5eventEEES2_PKT_mPS3_RKSt6vectorImSaImEERKNS0_12communicatorERKNS0_15allgatherv_attrERKS7_IS2_SaIS2_EE
_ZN3ccl2v110allgathervIfNS0_5eventEEES2_PKT_mPS3_RKSt6vectorImSaImEERKNS0_12communicatorERKNS0_6streamERKNS0_15allgatherv_attrERKS7_IS2_SaIS2_EE
_ZN3ccl2v110allgathervIfNS0_5eventEEES2_PKT_mRSt6vectorIPS3_SaIS7_EERKS6_ImSaImEERKNS0_12communicatorERKNS0_15allgatherv_attrERKS6_IS2_SaIS2_EE
_ZN3ccl2v110allgathervIfNS0_5eventEEES2_PKT_mRSt6vectorIPS3_SaIS7_EERKS6_ImSaImEERKNS0_12communicatorERKNS0_6streamERKNS0_15allgatherv_attrERKS6_IS2_SaIS2_EE
_ZN3ccl2v110allgathervIhNS0_5eventEEES2_PKT_mPS3_RKSt6vectorImSaImEERKNS0_12communicatorERKNS0_15allgatherv_attrERKS7_IS2_SaIS2_EE
_ZN3ccl2v110allgathervIhNS0_5eventEEES2_PKT_mPS3_RKSt6vectorImSaImEERKNS0_12communicatorERKNS0_6streamERKNS0_15allgatherv_attrERKS7_IS2_SaIS2_EE
_ZN3ccl2v110allgathervIhNS0_5eventEEES2_PKT_mRSt6vectorIPS3_SaIS7_EERKS6_ImSaImEERKNS0_12communicatorERKNS0_15allgatherv_attrERKS6_IS2_SaIS2_EE
_ZN3ccl2v110allgathervIhNS0_5eventEEES2_PKT_mRSt6vectorIPS3_SaIS7_EERKS6_ImSaImEERKNS0_12communicatorERKNS0_6streamERKNS0_15allgatherv_attrERKS6_IS2_SaIS2_EE
_ZN3ccl2v110allgathervIiNS0_5eventEEES2_PKT_mPS3_RKSt6vectorImSaImEERKNS0_12communicatorERKNS0_15allgatherv_attrERKS7_IS2_SaIS2_EE
_ZN3ccl2v110allgathervIiNS0_5eventEEES2_PKT_mPS3_RKSt6vectorImSaImEERKNS0_12communicatorERKNS0_6streamERKNS0_15allgatherv_attrERKS7_IS2_SaIS2_EE
_ZN3ccl2v110allgathervIiNS0_5eventEEES2_PKT_mRSt6vectorIPS3_SaIS7_EERKS6_ImSaImEERKNS0_12communicatorERKNS0_15allgatherv_attrERKS6_IS2_SaIS2_EE
_ZN3ccl2v110allgathervIiNS0_5eventEEES2_PKT_mRSt6vectorIPS3_SaIS7_EERKS6_ImSaImEERKNS0_12communicatorERKNS0_6streamERKNS0_15allgatherv_attrERKS6_IS2_SaIS2_EE
_ZN3ccl2v110allgathervIjNS0_5eventEEES2_PKT_mPS3_RKSt6vectorImSaImEERKNS0_12communicatorERKNS0_15allgatherv_attrERKS7_IS2_SaIS2_EE
_ZN3ccl2v110allgathervIjNS0_5eventEEES2_PKT_mPS3_RKSt6vectorImSaImEERKNS0_12communicatorERKNS0_6streamERKNS0_15allgatherv_attrERKS7_IS2_SaIS2_EE
_ZN3ccl2v110allgathervIjNS0_5eventEEES2_PKT_mRSt6vectorIPS3_SaIS7_EERKS6_ImSaImEERKNS0_12communicatorERKNS0_15allgatherv_attrERKS6_IS2_SaIS2_EE
_ZN3ccl2v110allgathervIjNS0_5eventEEES2_PKT_mRSt6vectorIPS3_SaIS7_EERKS6_ImSaImEERKNS0_12communicatorERKNS0_6streamERKNS0_15allgatherv_attrERKS6_IS2_SaIS2_EE
_ZN3ccl2v110allgathervIlNS0_5eventEEES2_PKT_mPS3_RKSt6vectorImSaImEERKNS0_12communicatorERKNS0_15allgatherv_attrERKS7_IS2_SaIS2_EE
_ZN3ccl2v110allgathervIlNS0_5eventEEES2_PKT_mPS3_RKSt6vectorImSaImEERKNS0_12communicatorERKNS0_6streamERKNS0_15allgatherv_attrERKS7_IS2_SaIS2_EE
_ZN3ccl2v110allgathervIlNS0_5eventEEES2_PKT_mRSt6vectorIPS3_SaIS7_EERKS6_ImSaImEERKNS0_12communicatorERKNS0_15allgatherv_attrERKS6_IS2_SaIS2_EE
_ZN3ccl2v110allgathervIlNS0_5eventEEES2_PKT_mRSt6vectorIPS3_SaIS7_EERKS6_ImSaImEERKNS0_12communicatorERKNS0_6streamERKNS0_15allgatherv_attrERKS6_IS2_SaIS2_EE
_ZN3ccl2v110allgathervImNS0_5eventEEES2_PKT_mPS3_RKSt6vectorImSaImEERKNS0_12communicatorERKNS0_15allgatherv_attrERKS7_IS2_SaIS2_EE
_ZN3ccl2v110allgathervImNS0_5eventEEES2_PKT_mPS3_RKSt6vectorImSaImEERKNS0_12communicatorERKNS0_6streamERKNS0_15allgatherv_attrERKS7_IS2_SaIS2_EE
_ZN3ccl2v110allgathervImNS0_5eventEEES2_PKT_mRSt6vectorIPS3_SaIS7_EERKS6_ImSaImEERKNS0_12communicatorERKNS0_15allgatherv_attrERKS6_IS2_SaIS2_EE
_ZN3ccl2v110allgathervImNS0_5eventEEES2_PKT_mRSt6vectorIPS3_SaIS7_EERKS6_ImSaImEERKNS0_12communicatorERKNS0_6streamERKNS0_15allgatherv_attrERKS6_IS2_SaIS2_EE
_ZN3ccl2v110allgathervIsNS0_5eventEEES2_PKT_mPS3_RKSt6vectorImSaImEERKNS0_12communicatorERKNS0_15allgatherv_attrERKS7_IS2_SaIS2_EE
_ZN3ccl2v110allgathervIsNS0_5eventEEES2_PKT_mPS3_RKSt6vectorImSaImEERKNS0_12communicatorERKNS0_6streamERKNS0_15allgatherv_attrERKS7_IS2_SaIS2_EE
_ZN3ccl2v110allgathervIsNS0_5eventEEES2_PKT_mRSt6vectorIPS3_SaIS7_EERKS6_ImSaImEERKNS0_12communicatorERKNS0_15allgatherv_attrERKS6_IS2_SaIS2_EE
_ZN3ccl2v110allgathervIsNS0_5eventEEES2_PKT_mRSt6vectorIPS3_SaIS7_EERKS6_ImSaImEERKNS0_12communicatorERKNS0_6streamERKNS0_15allgatherv_attrERKS6_IS2_SaIS2_EE
_ZN3ccl2v110allgathervItNS0_5eventEEES2_PKT_mPS3_RKSt6vectorImSaImEERKNS0_12communicatorERKNS0_15allgatherv_attrERKS7_IS2_SaIS2_EE
_ZN3ccl2v110allgathervItNS0_5eventEEES2_PKT_mPS3_RKSt6vectorImSaImEERKNS0_12communicatorERKNS0_6streamERKNS0_15allgatherv_attrERKS7_IS2_SaIS2_EE
_ZN3ccl2v110allgathervItNS0_5eventEEES2_PKT_mRSt6vectorIPS3_SaIS7_EERKS6_ImSaImEERKNS0_12communicatorERKNS0_15allgatherv_attrERKS6_IS2_SaIS2_EE
_ZN3ccl2v110allgathervItNS0_5eventEEES2_PKT_mRSt6vectorIPS3_SaIS7_EERKS6_ImSaImEERKNS0_12communicatorERKNS0_6streamERKNS0_15allgatherv_attrERKS6_IS2_SaIS2_EE
_ZN3ccl2v110create_kvsERKSt5arrayIcLm256EERKNS0_8kvs_attrE
_ZN3ccl2v111reduce_attr3setILNS0_14reduce_attr_idE5EPFvPKvmPvPmNS0_8datatypeEPKNS0_10fn_contextEEEENS_6detail24ccl_api_type_attr_traitsIS3_XT_EE11return_typeERKT0_
_ZN3ccl2v111reduce_attr3setILNS0_17operation_attr_idE0ENS0_15library_versionEEENS_6detail24ccl_api_type_attr_traitsIS3_XT_EE11return_typeERKT0_
_ZN3ccl2v111reduce_attr3setILNS0_17operation_attr_idE1EiEENS_6detail24ccl_api_type_attr_traitsIS3_XT_EE11return_typeERKT0_
_ZN3ccl2v111reduce_attr3setILNS0_17operation_attr_idE1EjEENS_6detail24ccl_api_type_attr_traitsIS3_XT_EE11return_typeERKT0_
_ZN3ccl2v111reduce_attr3setILNS0_17operation_attr_idE1EmEENS_6detail24ccl_api_type_attr_traitsIS3_XT_EE11return_typeERKT0_
_ZN3ccl2v111reduce_attr3setILNS0_17operation_attr_idE2EbEENS_6detail24ccl_api_type_attr_traitsIS3_XT_EE11return_typeERKT0_
_ZN3ccl2v111reduce_attr3setILNS0_17operation_attr_idE3EbEENS_6detail24ccl_api_type_attr_traitsIS3_XT_EE11return_typeERKT0_
_ZN3ccl2v111reduce_attr3setILNS0_17operation_attr_idE4ENS0_6stringEEENS_6detail24ccl_api_type_attr_traitsIS3_XT_EE11return_typeERKT0_
_ZN3ccl2v111reduce_attraSEOS1_
_ZN3ccl2v111reduce_attraSERKS1_
_ZN3ccl2v111reduce_attrC1EOS1_
_ZN3ccl2v111reduce_attrC1ERKNS0_15library_versionE
_ZN3ccl2v111reduce_attrC1ERKS1_
_ZN3ccl2v111reduce_attrC2EOS1_
_ZN3ccl2v111reduce_attrC2ERKNS0_15library_versionE
_ZN3ccl2v111reduce_attrC2ERKS1_
_ZN3ccl2v111reduce_attrD1Ev
_ZN3ccl2v111reduce_attrD2Ev
_ZN3ccl2v112barrier_attr3setILNS0_17operation_attr_idE0ENS0_15library_versionEEENS_6detail24ccl_api_type_attr_traitsIS3_XT_EE11return_typeERKT0_
_ZN3ccl2v112barrier_attr3setILNS0_17operation_attr_idE1EiEENS_6detail24ccl_api_type_attr_traitsIS3_XT_EE11return_typeERKT0_
_ZN3ccl2v112barrier_attr3setILNS0_17operation_attr_idE1EjEENS_6detail24ccl_api_type_attr_traitsIS3_XT_EE11return_typeERKT0_
_ZN3ccl2v112barrier_attr3setILNS0_17operation_attr_idE1EmEENS_6detail24ccl_api_type_attr_traitsIS3_XT_EE11return_typeERKT0_
_ZN3ccl2v112barrier_attr3setILNS0_17operation_attr_idE2EbEENS_6detail24ccl_api_type_attr_traitsIS3_XT_EE11return_typeERKT0_
_ZN3ccl2v112barrier_attr3setILNS0_17operation_attr_idE3EbEENS_6detail24ccl_api_type_attr_traitsIS3_XT_EE11return_typeERKT0_
_ZN3ccl2v112barrier_attr3setILNS0_17operation_attr_idE4ENS0_6stringEEENS_6detail24ccl_api_type_attr_traitsIS3_XT_EE11return_typeERKT0_
_ZN3ccl2v112barrier_attraSEOS1_
_ZN3ccl2v112barrier_attraSERKS1_
_ZN3ccl2v112barrier_attrC1EOS1_
_ZN3ccl2v112barrier_attrC1ERKNS0_15library_versionE
_ZN3ccl2v112barrier_attrC1ERKS1_
_ZN3ccl2v112barrier_attrC2EOS1_
_ZN3ccl2v112barrier_attrC2ERKNS0_15library_versionE
_ZN3ccl2v112barrier_attrC2ERKS1_
_ZN3ccl2v112barrier_attrD1Ev
_ZN3ccl2v112barrier_attrD2Ev
_ZN3ccl2v112communicator20create_communicatorsINS0_6deviceENS0_7contextEEESt6vectorIS1_SaIS1_EEiRKS5_ISt4pairIiT_ESaISA_EERKT0_St10shared_ptrINS0_13kvs_interfaceEE
_ZN3ccl2v112communicator20create_communicatorsINS0_6deviceENS0_7contextEEESt6vectorIS1_SaIS1_EEiRKS5_IT_SaIS8_EERKT0_St10shared_ptrINS0_13kvs_interfaceEE
_ZN3ccl2v112communicator20create_communicatorsINS0_6deviceENS0_7contextEEESt6vectorIS1_SaIS1_EEiRKSt3mapIiT_St4lessIiESaISt4pairIKiS9_EEERKT0_St10shared_ptrINS0_13kvs_interfaceEE
_ZN3ccl2v112communicator20create_communicatorsISt10shared_ptrIN6native10ccl_deviceEES3_INS4_11ccl_contextEEEESt6vectorIS1_SaIS1_EEiRKS9_ISt4pairIiT_ESaISE_EERKT0_S3_INS0_13kvs_interfaceEE
_ZN3ccl2v112communicator20create_communicatorsISt10shared_ptrIN6native10ccl_deviceEES3_INS4_11ccl_contextEEEESt6vectorIS1_SaIS1_EEiRKS9_IT_SaISC_EERKT0_S3_INS0_13kvs_interfaceEE
_ZN3ccl2v112communicator20create_communicatorsISt10shared_ptrIN6native10ccl_deviceEES3_INS4_11ccl_contextEEEESt6vectorIS1_SaIS1_EEiRKSt3mapIiT_St4lessIiESaISt4pairIKiSD_EEERKT0_S3_INS0_13kvs_interfaceEE
_ZN3ccl2v112communicator20create_communicatorsISt5tupleIJjjjEESt10shared_ptrIN6native11ccl_contextEEEESt6vectorIS1_SaIS1_EEiRKS9_ISt4pairIiT_ESaISE_EERKT0_S5_INS0_13kvs_interfaceEE
_ZN3ccl2v112communicator20create_communicatorsISt5tupleIJjjjEESt10shared_ptrIN6native11ccl_contextEEEESt6vectorIS1_SaIS1_EEiRKS9_IT_SaISC_EERKT0_S5_INS0_13kvs_interfaceEE
_ZN3ccl2v112communicator20create_communicatorsISt5tupleIJjjjEESt10shared_ptrIN6native11ccl_contextEEEESt6vectorIS1_SaIS1_EEiRKSt3mapIiT_St4lessIiESaISt4pairIKiSD_EEERKT0_S5_INS0_13kvs_interfaceEE
_ZN3ccl2v112communicator5splitERKNS0_15comm_split_attrE
_ZN3ccl2v112communicatoraSEOS1_
_ZN3ccl2v112communicatorC1EOS1_
_ZN3ccl2v112communicatorC1EOSt10shared_ptrINS_22communicator_interfaceEE
_ZN3ccl2v112communicatorC2EOS1_
_ZN3ccl2v112communicatorC2EOSt10shared_ptrINS_22communicator_interfaceEE
_ZN3ccl2v112communicatorD1Ev
_ZN3ccl2v112communicatorD2Ev
_ZN3ccl2v113alltoall_attr3setILNS0_17operation_attr_idE0ENS0_15library_versionEEENS_6detail24ccl_api_type_attr_traitsIS3_XT_EE11return_typeERKT0_
_ZN3ccl2v113alltoall_attr3setILNS0_17operation_attr_idE1EiEENS_6detail24ccl_api_type_attr_traitsIS3_XT_EE11return_typeERKT0_
_ZN3ccl2v113alltoall_attr3setILNS0_17operation_attr_idE1EjEENS_6detail24ccl_api_type_attr_traitsIS3_XT_EE11return_typeERKT0_
_ZN3ccl2v113alltoall_attr3setILNS0_17operation_attr_idE1EmEENS_6detail24ccl_api_type_attr_traitsIS3_XT_EE11return_typeERKT0_
_ZN3ccl2v113alltoall_attr3setILNS0_17operation_attr_idE2EbEENS_6detail24ccl_api_type_attr_traitsIS3_XT_EE11return_typeERKT0_
_ZN3ccl2v113alltoall_attr3setILNS0_17operation_attr_idE3EbEENS_6detail24ccl_api_type_attr_traitsIS3_XT_EE11return_typeERKT0_
_ZN3ccl2v113alltoall_attr3setILNS0_17operation_attr_idE4ENS0_6stringEEENS_6detail24ccl_api_type_attr_traitsIS3_XT_EE11return_typeERKT0_
_ZN3ccl2v113alltoall_attraSEOS1_
_ZN3ccl2v113alltoall_attraSERKS1_
_ZN3ccl2v113alltoall_attrC1EOS1_
_ZN3ccl2v113alltoall_attrC1ERKNS0_15library_versionE
_ZN3ccl2v113alltoall_attrC1ERKS1_
_ZN3ccl2v113alltoall_attrC2EOS1_
_ZN3ccl2v113alltoall_attrC2ERKNS0_15library_versionE
_ZN3ccl2v113alltoall_attrC2ERKS1_
_ZN3ccl2v113alltoall_attrD1Ev
_ZN3ccl2v113alltoall_attrD2Ev
_ZN3ccl2v113create_deviceEv
_ZN3ccl2v113create_streamEv
_ZN3ccl2v113datatype_attr3setILNS0_16datatype_attr_idE1EiEET0_RKS4_
_ZN3ccl2v113datatype_attr3setILNS0_16datatype_attr_idE1EmEET0_RKS4_
_ZN3ccl2v113datatype_attraSEOS1_
_ZN3ccl2v113datatype_attraSERKS1_
_ZN3ccl2v113datatype_attrC1EOS1_
_ZN3ccl2v113datatype_attrC1ERKNS0_15library_versionE
_ZN3ccl2v113datatype_attrC1ERKS1_
_ZN3ccl2v113datatype_attrC2EOS1_
_ZN3ccl2v113datatype_attrC2ERKNS0_15library_versionE
_ZN3ccl2v113datatype_attrC2ERKS1_
_ZN3ccl2v113datatype_attrD1Ev
_ZN3ccl2v113datatype_attrD2Ev
_ZN3ccl2v113kvs_interfaceD0Ev
_ZN3ccl2v113kvs_interfaceD1Ev
_ZN3ccl2v114allreduce_attr3setILNS0_17allreduce_attr_idE5EPFvPKvmPvPmNS0_8datatypeEPKNS0_10fn_contextEEEENS_6detail24ccl_api_type_attr_traitsIS3_XT_EE11return_typeERKT0_
_ZN3ccl2v114allreduce_attr3setILNS0_17operation_attr_idE0ENS0_15library_versionEEENS_6detail24ccl_api_type_attr_traitsIS3_XT_EE11return_typeERKT0_
_ZN3ccl2v114allreduce_attr3setILNS0_17operation_attr_idE1EiEENS_6detail24ccl_api_type_attr_traitsIS3_XT_EE11return_typeERKT0_
_ZN3ccl2v114allreduce_attr3setILNS0_17operation_attr_idE1EjEENS_6detail24ccl_api_type_attr_traitsIS3_XT_EE11return_typeERKT0_
_ZN3ccl2v114allreduce_attr3setILNS0_17operation_attr_idE1EmEENS_6detail24ccl_api_type_attr_traitsIS3_XT_EE11return_typeERKT0_
_ZN3ccl2v114allreduce_attr3setILNS0_17operation_attr_idE2EbEENS_6detail24ccl_api_type_attr_traitsIS3_XT_EE11return_typeERKT0_
_ZN3ccl2v114allreduce_attr3setILNS0_17operation_attr_idE3EbEENS_6detail24ccl_api_type_attr_traitsIS3_XT_EE11return_typeERKT0_
_ZN3ccl2v114allreduce_attr3setILNS0_17operation_attr_idE4ENS0_6stringEEENS_6detail24ccl_api_type_attr_traitsIS3_XT_EE11return_typeERKT0_
_ZN3ccl2v114allreduce_attraSEOS1_
_ZN3ccl2v114allreduce_attraSERKS1_
_ZN3ccl2v114allreduce_attrC1EOS1_
_ZN3ccl2v114allreduce_attrC1ERKNS0_15library_versionE
_ZN3ccl2v114allreduce_attrC1ERKS1_
_ZN3ccl2v114allreduce_attrC2EOS1_
_ZN3ccl2v114allreduce_attrC2ERKNS0_15library_versionE
_ZN3ccl2v114allreduce_attrC2ERKS1_
_ZN3ccl2v114allreduce_attrD1Ev
_ZN3ccl2v114allreduce_attrD2Ev
_ZN3ccl2v114alltoallv_attr3setILNS0_17operation_attr_idE0ENS0_15library_versionEEENS_6detail24ccl_api_type_attr_traitsIS3_XT_EE11return_typeERKT0_
_ZN3ccl2v114alltoallv_attr3setILNS0_17operation_attr_idE1EiEENS_6detail24ccl_api_type_attr_traitsIS3_XT_EE11return_typeERKT0_
_ZN3ccl2v114alltoallv_attr3setILNS0_17operation_attr_idE1EjEENS_6detail24ccl_api_type_attr_traitsIS3_XT_EE11return_typeERKT0_
_ZN3ccl2v114alltoallv_attr3setILNS0_17operation_attr_idE1EmEENS_6detail24ccl_api_type_attr_traitsIS3_XT_EE11return_typeERKT0_
_ZN3ccl2v114alltoallv_attr3setILNS0_17operation_attr_idE2EbEENS_6detail24ccl_api_type_attr_traitsIS3_XT_EE11return_typeERKT0_
_ZN3ccl2v114alltoallv_attr3setILNS0_17operation_attr_idE3EbEENS_6detail24ccl_api_type_attr_traitsIS3_XT_EE11return_typeERKT0_
_ZN3ccl2v114alltoallv_attr3setILNS0_17operation_attr_idE4ENS0_6stringEEENS_6detail24ccl_api_type_attr_traitsIS3_XT_EE11return_typeERKT0_
_ZN3ccl2v114alltoallv_attraSEOS1_
_ZN3ccl2v114alltoallv_attraSERKS1_
_ZN3ccl2v114alltoallv_attrC1EOS1_
_ZN3ccl2v114alltoallv_attrC1ERKNS0_15library_versionE
_ZN3ccl2v114alltoallv_attrC1ERKS1_
_ZN3ccl2v114alltoallv_attrC2EOS1_
_ZN3ccl2v114alltoallv_attrC2ERKNS0_15library_versionE
_ZN3ccl2v114alltoallv_attrC2ERKS1_
_ZN3ccl2v114alltoallv_attrD1Ev
_ZN3ccl2v114alltoallv_attrD2Ev
_ZN3ccl2v114broadcast_attr3setILNS0_17operation_attr_idE0ENS0_15library_versionEEENS_6detail24ccl_api_type_attr_traitsIS3_XT_EE11return_typeERKT0_
_ZN3ccl2v114broadcast_attr3setILNS0_17operation_attr_idE1EiEENS_6detail24ccl_api_type_attr_traitsIS3_XT_EE11return_typeERKT0_
_ZN3ccl2v114broadcast_attr3setILNS0_17operation_attr_idE1EjEENS_6detail24ccl_api_type_attr_traitsIS3_XT_EE11return_typeERKT0_
_ZN3ccl2v114broadcast_attr3setILNS0_17operation_attr_idE1EmEENS_6detail24ccl_api_type_attr_traitsIS3_XT_EE11return_typeERKT0_
_ZN3ccl2v114broadcast_attr3setILNS0_17operation_attr_idE2EbEENS_6detail24ccl_api_type_attr_traitsIS3_XT_EE11return_typeERKT0_
_ZN3ccl2v114broadcast_attr3setILNS0_17operation_attr_idE3EbEENS_6detail24ccl_api_type_attr_traitsIS3_XT_EE11return_typeERKT0_
_ZN3ccl2v114broadcast_attr3setILNS0_17operation_attr_idE4ENS0_6stringEEENS_6detail24ccl_api_type_attr_traitsIS3_XT_EE11return_typeERKT0_
_ZN3ccl2v114broadcast_attraSEOS1_
_ZN3ccl2v114broadcast_attraSERKS1_
_ZN3ccl2v114broadcast_attrC1EOS1_
_ZN3ccl2v114broadcast_attrC1ERKNS0_15library_versionE
_ZN3ccl2v114broadcast_attrC1ERKS1_
_ZN3ccl2v114broadcast_attrC2EOS1_
_ZN3ccl2v114broadcast_attrC2ERKNS0_15library_versionE
_ZN3ccl2v114broadcast_attrC2ERKS1_
_ZN3ccl2v114broadcast_attrD1Ev
_ZN3ccl2v114broadcast_attrD2Ev
_ZN3ccl2v114create_contextEv
_ZN3ccl2v114default_streamE
_ZN3ccl2v114reduce_scatterEPKvPvmNS0_8datatypeENS0_9reductionERKNS0_12communicatorERKNS0_19reduce_scatter_attrERKSt6vectorINS0_5eventESaISD_EE
_ZN3ccl2v114reduce_scatterEPKvPvmNS0_8datatypeENS0_9reductionERKNS0_12communicatorERKNS0_6streamERKNS0_19reduce_scatter_attrERKSt6vectorINS0_5eventESaISG_EE
_ZN3ccl2v114reduce_scatterIaNS0_5eventEEES2_PKT_PS3_mNS0_9reductionERKNS0_12communicatorERKNS0_19reduce_scatter_attrERKSt6vectorIS2_SaIS2_EE
_ZN3ccl2v114reduce_scatterIaNS0_5eventEEES2_PKT_PS3_mNS0_9reductionERKNS0_12communicatorERKNS0_6streamERKNS0_19reduce_scatter_attrERKSt6vectorIS2_SaIS2_EE
_ZN3ccl2v114reduce_scatterIdNS0_5eventEEES2_PKT_PS3_mNS0_9reductionERKNS0_12communicatorERKNS0_19reduce_scatter_attrERKSt6vectorIS2_SaIS2_EE
_ZN3ccl2v114reduce_scatterIdNS0_5eventEEES2_PKT_PS3_mNS0_9reductionERKNS0_12communicatorERKNS0_6streamERKNS0_19reduce_scatter_attrERKSt6vectorIS2_SaIS2_EE
_ZN3ccl2v114reduce_scatterIfNS0_5eventEEES2_PKT_PS3_mNS0_9reductionERKNS0_12communicatorERKNS0_19reduce_scatter_attrERKSt6vectorIS2_SaIS2_EE
_ZN3ccl2v114reduce_scatterIfNS0_5eventEEES2_PKT_PS3_mNS0_9reductionERKNS0_12communicatorERKNS0_6streamERKNS0_19reduce_scatter_attrERKSt6vectorIS2_SaIS2_EE
_ZN3ccl2v114reduce_scatterIhNS0_5eventEEES2_PKT_PS3_mNS0_9reductionERKNS0_12communicatorERKNS0_19reduce_scatter_attrERKSt6vectorIS2_SaIS2_EE
_ZN3ccl2v114reduce_scatterIhNS0_5eventEEES2_PKT_PS3_mNS0_9reductionERKNS0_12communicatorERKNS0_6streamERKNS0_19reduce_scatter_attrERKSt6vectorIS2_SaIS2_EE
_ZN3ccl2v114reduce_scatterIiNS0_5eventEEES2_PKT_PS3_mNS0_9reductionERKNS0_12communicatorERKNS0_19reduce_scatter_attrERKSt6vectorIS2_SaIS2_EE
_ZN3ccl2v114reduce_scatterIiNS0_5eventEEES2_PKT_PS3_mNS0_9reductionERKNS0_12communicatorERKNS0_6streamERKNS0_19reduce_scatter_attrERKSt6vectorIS2_SaIS2_EE
_ZN3ccl2v114reduce_scatterIjNS0_5eventEEES2_PKT_PS3_mNS0_9reductionERKNS0_12communicatorERKNS0_19reduce_scatter_attrERKSt6vectorIS2_SaIS2_EE
_ZN3ccl2v114reduce_scatterIjNS0_5eventEEES2_PKT_PS3_mNS0_9reductionERKNS0_12communicatorERKNS0_6streamERKNS0_19reduce_scatter_attrERKSt6vectorIS2_SaIS2_EE
_ZN3ccl2v114reduce_scatterIlNS0_5eventEEES2_PKT_PS3_mNS0_9reductionERKNS0_12communicatorERKNS0_19reduce_scatter_attrERKSt6vectorIS2_SaIS2_EE
_ZN3ccl2v114reduce_scatterIlNS0_5eventEEES2_PKT_PS3_mNS0_9reductionERKNS0_12communicatorERKNS0_6streamERKNS0_19reduce_scatter_attrERKSt6vectorIS2_SaIS2_EE
_ZN3ccl2v114reduce_scatterImNS0_5eventEEES2_PKT_PS3_mNS0_9reductionERKNS0_12communicatorERKNS0_19reduce_scatter_attrERKSt6vectorIS2_SaIS2_EE
_ZN3ccl2v114reduce_scatterImNS0_5eventEEES2_PKT_PS3_mNS0_9reductionERKNS0_12communicatorERKNS0_6streamERKNS0_19reduce_scatter_attrERKSt6vectorIS2_SaIS2_EE
_ZN3ccl2v114reduce_scatterIsNS0_5eventEEES2_PKT_PS3_mNS0_9reductionERKNS0_12communicatorERKNS0_19reduce_scatter_attrERKSt6vectorIS2_SaIS2_EE
_ZN3ccl2v114reduce_scatterIsNS0_5eventEEES2_PKT_PS3_mNS0_9reductionERKNS0_12communicatorERKNS0_6streamERKNS0_19reduce_scatter_attrERKSt6vectorIS2_SaIS2_EE
_ZN3ccl2v114reduce_scatterItNS0_5eventEEES2_PKT_PS3_mNS0_9reductionERKNS0_12communicatorERKNS0_19reduce_scatter_attrERKSt6vectorIS2_SaIS2_EE
_ZN3ccl2v114reduce_scatterItNS0_5eventEEES2_PKT_PS3_mNS0_9reductionERKNS0_12communicatorERKNS0_6streamERKNS0_19reduce_scatter_attrERKSt6vectorIS2_SaIS2_EE
_ZN3ccl2v115allgatherv_attr3setILNS0_17operation_attr_idE0ENS0_15library_versionEEENS_6detail24ccl_api_type_attr_traitsIS3_XT_EE11return_typeERKT0_
_ZN3ccl2v115allgatherv_attr3setILNS0_17operation_attr_idE1EiEENS_6detail24ccl_api_type_attr_traitsIS3_XT_EE11return_typeERKT0_
_ZN3ccl2v115allgatherv_attr3setILNS0_17operation_attr_idE1EjEENS_6detail24ccl_api_type_attr_traitsIS3_XT_EE11return_typeERKT0_
_ZN3ccl2v115allgatherv_attr3setILNS0_17operation_attr_idE1EmEENS_6detail24ccl_api_type_attr_traitsIS3_XT_EE11return_typeERKT0_
_ZN3ccl2v115allgatherv_attr3setILNS0_17operation_attr_idE2EbEENS_6detail24ccl_api_type_attr_traitsIS3_XT_EE11return_typeERKT0_
_ZN3ccl2v115allgatherv_attr3setILNS0_17operation_attr_idE3EbEENS_6detail24ccl_api_type_attr_traitsIS3_XT_EE11return_typeERKT0_
_ZN3ccl2v115allgatherv_attr3setILNS0_17operation_attr_idE4ENS0_6stringEEENS_6detail24ccl_api_type_attr_traitsIS3_XT_EE11return_typeERKT0_
_ZN3ccl2v115allgatherv_attraSEOS1_
_ZN3ccl2v115allgatherv_attraSERKS1_
_ZN3ccl2v115allgatherv_attrC1EOS1_
_ZN3ccl2v115allgatherv_attrC1ERKNS0_15library_versionE
_ZN3ccl2v115allgatherv_attrC1ERKS1_
_ZN3ccl2v115allgatherv_attrC2EOS1_
_ZN3ccl2v115allgatherv_attrC2ERKNS0_15library_versionE
_ZN3ccl2v115allgatherv_attrC2ERKS1_
_ZN3ccl2v115allgatherv_attrD1Ev
_ZN3ccl2v115allgatherv_attrD2Ev
_ZN3ccl2v115comm_split_attr3setILNS0_18comm_split_attr_idE0ENS0_15library_versionEEET0_RKS5_
_ZN3ccl2v115comm_split_attr3setILNS0_18comm_split_attr_idE1EiEET0_RKS4_
_ZN3ccl2v115comm_split_attr3setILNS0_18comm_split_attr_idE2ENS0_11split_groupEEET0_RKS5_
_ZN3ccl2v115comm_split_attraSEOS1_
_ZN3ccl2v115comm_split_attraSERKS1_
_ZN3ccl2v115comm_split_attrC1ENS0_14ccl_empty_attrE
_ZN3ccl2v115comm_split_attrC1EOS1_
_ZN3ccl2v115comm_split_attrC1ERKNS0_15library_versionE
_ZN3ccl2v115comm_split_attrC1ERKS1_
_ZN3ccl2v115comm_split_attrC2ENS0_14ccl_empty_attrE
_ZN3ccl2v115comm_split_attrC2EOS1_
_ZN3ccl2v115comm_split_attrC2ERKNS0_15library_versionE
_ZN3ccl2v115comm_split_attrC2ERKS1_
_ZN3ccl2v115comm_split_attrD1Ev
_ZN3ccl2v115comm_split_attrD2Ev
_ZN3ccl2v115create_main_kvsERKNS0_8kvs_attrE
_ZN3ccl2v116default_kvs_attrE
_ZN3ccl2v117default_comm_attrE
_ZN3ccl2v117default_init_attrE
_ZN3ccl2v117get_datatype_sizeENS0_8datatypeE
_ZN3ccl2v117register_datatypeERKNS0_13datatype_attrE
_ZN3ccl2v119create_communicatorEiiSt10shared_ptrINS0_13kvs_interfaceEERKNS0_9comm_attrE
_ZN3ccl2v119default_reduce_attrE
_ZN3ccl2v119deregister_datatypeENS0_8datatypeE
_ZN3ccl2v119get_library_versionEv
_ZN3ccl2v119reduce_scatter_attr3setILNS0_17operation_attr_idE0ENS0_15library_versionEEENS_6detail24ccl_api_type_attr_traitsIS3_XT_EE11return_typeERKT0_
_ZN3ccl2v119reduce_scatter_attr3setILNS0_17operation_attr_idE1EiEENS_6detail24ccl_api_type_attr_traitsIS3_XT_EE11return_typeERKT0_
_ZN3ccl2v119reduce_scatter_attr3setILNS0_17operation_attr_idE1EjEENS_6detail24ccl_api_type_attr_traitsIS3_XT_EE11return_typeERKT0_
_ZN3ccl2v119reduce_scatter_attr3setILNS0_17operation_attr_idE1EmEENS_6detail24ccl_api_type_attr_traitsIS3_XT_EE11return_typeERKT0_
_ZN3ccl2v119reduce_scatter_attr3setILNS0_17operation_attr_idE2EbEENS_6detail24ccl_api_type_attr_traitsIS3_XT_EE11return_typeERKT0_
_ZN3ccl2v119reduce_scatter_attr3setILNS0_17operation_attr_idE3EbEENS_6detail24ccl_api_type_attr_traitsIS3_XT_EE11return_typeERKT0_
_ZN3ccl2v119reduce_scatter_attr3setILNS0_17operation_attr_idE4ENS0_6stringEEENS_6detail24ccl_api_type_attr_traitsIS3_XT_EE11return_typeERKT0_
_ZN3ccl2v119reduce_scatter_attr3setILNS0_22reduce_scatter_attr_idE5EPFvPKvmPvPmNS0_8datatypeEPKNS0_10fn_contextEEEENS_6detail24ccl_api_type_attr_traitsIS3_XT_EE11return_typeERKT0_
_ZN3ccl2v119reduce_scatter_attraSEOS1_
_ZN3ccl2v119reduce_scatter_attraSERKS1_
_ZN3ccl2v119reduce_scatter_attrC1EOS1_
_ZN3ccl2v119reduce_scatter_attrC1ERKNS0_15library_versionE
_ZN3ccl2v119reduce_scatter_attrC1ERKS1_
_ZN3ccl2v119reduce_scatter_attrC2EOS1_
_ZN3ccl2v119reduce_scatter_attrC2ERKNS0_15library_versionE
_ZN3ccl2v119reduce_scatter_attrC2ERKS1_
_ZN3ccl2v119reduce_scatter_attrD1Ev
_ZN3ccl2v119reduce_scatter_attrD2Ev
_ZN3ccl2v120default_barrier_attrE
_ZN3ccl2v121default_alltoall_attrE
_ZN3ccl2v121sparse_allreduce_attr3setILNS0_17operation_attr_idE0ENS0_15library_versionEEENS_6detail24ccl_api_type_attr_traitsIS3_XT_EE11return_typeERKT0_
_ZN3ccl2v121sparse_allreduce_attr3setILNS0_17operation_attr_idE1EiEENS_6detail24ccl_api_type_attr_traitsIS3_XT_EE11return_typeERKT0_
_ZN3ccl2v121sparse_allreduce_attr3setILNS0_17operation_attr_idE1EjEENS_6detail24ccl_api_type_attr_traitsIS3_XT_EE11return_typeERKT0_
_ZN3ccl2v121sparse_allreduce_attr3setILNS0_17operation_attr_idE1EmEENS_6detail24ccl_api_type_attr_traitsIS3_XT_EE11return_typeERKT0_
_ZN3ccl2v121sparse_allreduce_attr3setILNS0_17operation_attr_idE2EbEENS_6detail24ccl_api_type_attr_traitsIS3_XT_EE11return_typeERKT0_
_ZN3ccl2v121sparse_allreduce_attr3setILNS0_17operation_attr_idE3EbEENS_6detail24ccl_api_type_attr_traitsIS3_XT_EE11return_typeERKT0_
_ZN3ccl2v121sparse_allreduce_attr3setILNS0_17operation_attr_idE4ENS0_6stringEEENS_6detail24ccl_api_type_attr_traitsIS3_XT_EE11return_typeERKT0_
_ZN3ccl2v121sparse_allreduce_attr3setILNS0_24sparse_allreduce_attr_idE5EPFvPKvmNS0_8datatypeES5_mS6_S5_EEENS_6detail24ccl_api_type_attr_traitsIS3_XT_EE11return_typeERKT0_
_ZN3ccl2v121sparse_allreduce_attr3setILNS0_24sparse_allreduce_attr_idE6EPFvmNS0_8datatypeEmS4_PKvPPvS8_EEENS_6detail24ccl_api_type_attr_traitsIS3_XT_EE11return_typeERKT0_
_ZN3ccl2v121sparse_allreduce_attr3setILNS0_24sparse_allreduce_attr_idE7EPKvEENS_6detail24ccl_api_type_attr_traitsIS3_XT_EE11return_typeERKT0_
_ZN3ccl2v121sparse_allreduce_attr3setILNS0_24sparse_allreduce_attr_idE8ENS0_20sparse_coalesce_modeEEENS_6detail24ccl_api_type_attr_traitsIS3_XT_EE11return_typeERKT0_
_ZN3ccl2v121sparse_allreduce_attraSEOS1_
_ZN3ccl2v121sparse_allreduce_attraSERKS1_
_ZN3ccl2v121sparse_allreduce_attrC1EOS1_
_ZN3ccl2v121sparse_allreduce_attrC1ERKNS0_15library_versionE
_ZN3ccl2v121sparse_allreduce_attrC1ERKS1_
_ZN3ccl2v121sparse_allreduce_attrC2EOS1_
_ZN3ccl2v121sparse_allreduce_attrC2ERKNS0_15library_versionE
_ZN3ccl2v121sparse_allreduce_attrC2ERKS1_
_ZN3ccl2v121sparse_allreduce_attrD1Ev
_ZN3ccl2v121sparse_allreduce_attrD2Ev
_ZN3ccl2v122default_allreduce_attrE
_ZN3ccl2v122default_alltoallv_attrE
_ZN3ccl2v122default_broadcast_attrE
_ZN3ccl2v123default_allgatherv_attrE
_ZN3ccl2v123default_comm_split_attrE
_ZN3ccl2v127default_reduce_scatter_attrE
_ZN3ccl2v129default_sparse_allreduce_attrE
_ZN3ccl2v13kvs16address_max_sizeE
_ZN3ccl2v13kvs3getERKNS0_6stringE
_ZN3ccl2v13kvs3setERKNS0_6stringERKSt6vectorIcSaIcEE
_ZN3ccl2v13kvs8get_implEv
_ZN3ccl2v13kvsC1ERKNS0_8kvs_attrE
_ZN3ccl2v13kvsC1ERKSt5arrayIcLm256EERKNS0_8kvs_attrE
_ZN3ccl2v13kvsC2ERKNS0_8kvs_attrE
_ZN3ccl2v13kvsC2ERKSt5arrayIcLm256EERKNS0_8kvs_attrE
_ZN3ccl2v13kvsD0Ev
_ZN3ccl2v13kvsD1Ev
_ZN3ccl2v13kvsD2Ev
_ZN3ccl2v14initERKNS0_9init_attrE
_ZN3ccl2v15event10get_nativeEv
_ZN3ccl2v15event18create_from_nativeENS_7empty_tESt10shared_ptrIN6native11ccl_contextEE
_ZN3ccl2v15event18create_from_nativeERSt10shared_ptrIN6native16ccl_device_eventEE
_ZN3ccl2v15event4testEv
_ZN3ccl2v15event4waitEv
_ZN3ccl2v15event6cancelEv
_ZN3ccl2v15eventaSEOS1_
_ZN3ccl2v15eventC1EOS1_
_ZN3ccl2v15eventC1EOSt10unique_ptrINS_10event_implESt14default_deleteIS3_EE
_ZN3ccl2v15eventC1Ev
_ZN3ccl2v15eventC2EOS1_
_ZN3ccl2v15eventC2EOSt10unique_ptrINS_10event_implESt14default_deleteIS3_EE
_ZN3ccl2v15eventC2Ev
_ZN3ccl2v15eventcvbEv
_ZN3ccl2v15eventD1Ev
_ZN3ccl2v15eventD2Ev
_ZN3ccl2v16device10get_nativeEv
_ZN3ccl2v16device13create_deviceIRKSt10shared_ptrIN6native10ccl_deviceEEvEES1_OT_
_ZN3ccl2v16device13create_deviceIRSt10shared_ptrIN6native10ccl_deviceEEvEES1_OT_
_ZN3ccl2v16device13create_deviceISt10shared_ptrIN6native10ccl_deviceEEvEES1_OT_
_ZN3ccl2v16device17build_from_paramsEv
_ZN3ccl2v16device3setILNS0_14device_attr_idE0ENS0_15library_versionEEENS_6detail24ccl_api_type_attr_traitsIS3_XT_EE11return_typeERKT0_
_ZN3ccl2v16deviceaSEOS1_
_ZN3ccl2v16deviceaSERKS1_
_ZN3ccl2v16deviceC1EOS1_
_ZN3ccl2v16deviceC1EOSt10shared_ptrI15ccl_device_implE
_ZN3ccl2v16deviceC1ERKS1_
_ZN3ccl2v16deviceC2EOS1_
_ZN3ccl2v16deviceC2EOSt10shared_ptrI15ccl_device_implE
_ZN3ccl2v16deviceC2ERKS1_
_ZN3ccl2v16deviceD1Ev
_ZN3ccl2v16deviceD2Ev
_ZN3ccl2v16reduceEPKvPvmNS0_8datatypeENS0_9reductionEiRKNS0_12communicatorERKNS0_11reduce_attrERKSt6vectorINS0_5eventESaISD_EE
_ZN3ccl2v16reduceEPKvPvmNS0_8datatypeENS0_9reductionEiRKNS0_12communicatorERKNS0_6streamERKNS0_11reduce_attrERKSt6vectorINS0_5eventESaISG_EE
_ZN3ccl2v16reduceIaNS0_5eventEEES2_PKT_PS3_mNS0_9reductionEiRKNS0_12communicatorERKNS0_11reduce_attrERKSt6vectorIS2_SaIS2_EE
_ZN3ccl2v16reduceIaNS0_5eventEEES2_PKT_PS3_mNS0_9reductionEiRKNS0_12communicatorERKNS0_6streamERKNS0_11reduce_attrERKSt6vectorIS2_SaIS2_EE
_ZN3ccl2v16reduceIdNS0_5eventEEES2_PKT_PS3_mNS0_9reductionEiRKNS0_12communicatorERKNS0_11reduce_attrERKSt6vectorIS2_SaIS2_EE
_ZN3ccl2v16reduceIdNS0_5eventEEES2_PKT_PS3_mNS0_9reductionEiRKNS0_12communicatorERKNS0_6streamERKNS0_11reduce_attrERKSt6vectorIS2_SaIS2_EE
_ZN3ccl2v16reduceIfNS0_5eventEEES2_PKT_PS3_mNS0_9reductionEiRKNS0_12communicatorERKNS0_11reduce_attrERKSt6vectorIS2_SaIS2_EE
_ZN3ccl2v16reduceIfNS0_5eventEEES2_PKT_PS3_mNS0_9reductionEiRKNS0_12communicatorERKNS0_6streamERKNS0_11reduce_attrERKSt6vectorIS2_SaIS2_EE
_ZN3ccl2v16reduceIhNS0_5eventEEES2_PKT_PS3_mNS0_9reductionEiRKNS0_12communicatorERKNS0_11reduce_attrERKSt6vectorIS2_SaIS2_EE
_ZN3ccl2v16reduceIhNS0_5eventEEES2_PKT_PS3_mNS0_9reductionEiRKNS0_12communicatorERKNS0_6streamERKNS0_11reduce_attrERKSt6vectorIS2_SaIS2_EE
_ZN3ccl2v16reduceIiNS0_5eventEEES2_PKT_PS3_mNS0_9reductionEiRKNS0_12communicatorERKNS0_11reduce_attrERKSt6vectorIS2_SaIS2_EE
_ZN3ccl2v16reduceIiNS0_5eventEEES2_PKT_PS3_mNS0_9reductionEiRKNS0_12communicatorERKNS0_6streamERKNS0_11reduce_attrERKSt6vectorIS2_SaIS2_EE
_ZN3ccl2v16reduceIjNS0_5eventEEES2_PKT_PS3_mNS0_9reductionEiRKNS0_12communicatorERKNS0_11reduce_attrERKSt6vectorIS2_SaIS2_EE
_ZN3ccl2v16reduceIjNS0_5eventEEES2_PKT_PS3_mNS0_9reductionEiRKNS0_12communicatorERKNS0_6streamERKNS0_11reduce_attrERKSt6vectorIS2_SaIS2_EE
_ZN3ccl2v16reduceIlNS0_5eventEEES2_PKT_PS3_mNS0_9reductionEiRKNS0_12communicatorERKNS0_11reduce_attrERKSt6vectorIS2_SaIS2_EE
_ZN3ccl2v16reduceIlNS0_5eventEEES2_PKT_PS3_mNS0_9reductionEiRKNS0_12communicatorERKNS0_6streamERKNS0_11reduce_attrERKSt6vectorIS2_SaIS2_EE
_ZN3ccl2v16reduceImNS0_5eventEEES2_PKT_PS3_mNS0_9reductionEiRKNS0_12communicatorERKNS0_11reduce_attrERKSt6vectorIS2_SaIS2_EE
_ZN3ccl2v16reduceImNS0_5eventEEES2_PKT_PS3_mNS0_9reductionEiRKNS0_12communicatorERKNS0_6streamERKNS0_11reduce_attrERKSt6vectorIS2_SaIS2_EE
_ZN3ccl2v16reduceIsNS0_5eventEEES2_PKT_PS3_mNS0_9reductionEiRKNS0_12communicatorERKNS0_11reduce_attrERKSt6vectorIS2_SaIS2_EE
_ZN3ccl2v16reduceIsNS0_5eventEEES2_PKT_PS3_mNS0_9reductionEiRKNS0_12communicatorERKNS0_6streamERKNS0_11reduce_attrERKSt6vectorIS2_SaIS2_EE
_ZN3ccl2v16reduceItNS0_5eventEEES2_PKT_PS3_mNS0_9reductionEiRKNS0_12communicatorERKNS0_11reduce_attrERKSt6vectorIS2_SaIS2_EE
_ZN3ccl2v16reduceItNS0_5eventEEES2_PKT_PS3_mNS0_9reductionEiRKNS0_12communicatorERKNS0_6streamERKNS0_11reduce_attrERKSt6vectorIS2_SaIS2_EE
_ZN3ccl2v16stream10get_nativeEv
_ZN3ccl2v16stream13create_streamISt10shared_ptrIN6native10ccl_deviceEES3_INS4_11ccl_contextEEvEES1_RT_RT0_
_ZN3ccl2v16stream13create_streamISt10shared_ptrIN6native16ccl_device_queueEEvEES1_RT_
_ZN3ccl2v16stream17build_from_paramsEv
_ZN3ccl2v16stream3setILNS0_14stream_attr_idE0ENS0_15library_versionEEENS_6detail24ccl_api_type_attr_traitsIS3_XT_EE11return_typeERKT0_
_ZN3ccl2v16stream3setILNS0_14stream_attr_idE3ESt10shared_ptrIN6native11ccl_contextEEEENS_6detail24ccl_api_type_attr_traitsIS3_XT_EE11return_typeERKT0_
_ZN3ccl2v16stream3setILNS0_14stream_attr_idE4EjEENS_6detail24ccl_api_type_attr_traitsIS3_XT_EE11return_typeERKT0_
_ZN3ccl2v16stream3setILNS0_14stream_attr_idE5EjEENS_6detail24ccl_api_type_attr_traitsIS3_XT_EE11return_typeERKT0_
_ZN3ccl2v16stream3setILNS0_14stream_attr_idE6EmEENS_6detail24ccl_api_type_attr_traitsIS3_XT_EE11return_typeERKT0_
_ZN3ccl2v16stream3setILNS0_14stream_attr_idE7EmEENS_6detail24ccl_api_type_attr_traitsIS3_XT_EE11return_typeERKT0_
_ZN3ccl2v16stream3setILNS0_14stream_attr_idE8EmEENS_6detail24ccl_api_type_attr_traitsIS3_XT_EE11return_typeERKT0_
_ZN3ccl2v16streamaSEOS1_
_ZN3ccl2v16streamaSERKS1_
_ZN3ccl2v16streamC1EOS1_
_ZN3ccl2v16streamC1EOSt10shared_ptrI10ccl_streamE
_ZN3ccl2v16streamC1ERKNS0_15library_versionE
_ZN3ccl2v16streamC1ERKS1_
_ZN3ccl2v16streamC2EOS1_
_ZN3ccl2v16streamC2EOSt10shared_ptrI10ccl_streamE
_ZN3ccl2v16streamC2ERKNS0_15library_versionE
_ZN3ccl2v16streamC2ERKS1_
_ZN3ccl2v16streamD1Ev
_ZN3ccl2v16streamD2Ev
_ZN3ccl2v17barrierERKNS0_12communicatorERKNS0_12barrier_attrERKSt6vectorINS0_5eventESaIS8_EE
_ZN3ccl2v17barrierERKNS0_12communicatorERKNS0_6streamERKNS0_12barrier_attrERKSt6vectorINS0_5eventESaISB_EE
_ZN3ccl2v17context10get_nativeEv
_ZN3ccl2v17context14create_contextIRKSt10shared_ptrIN6native11ccl_contextEEvEES1_OT_
_ZN3ccl2v17context14create_contextIRSt10shared_ptrIN6native11ccl_contextEEvEES1_OT_
_ZN3ccl2v17context14create_contextISt10shared_ptrIN6native11ccl_contextEEvEES1_OT_
_ZN3ccl2v17context17build_from_paramsEv
_ZN3ccl2v17context3setILNS0_15context_attr_idE0ENS0_15library_versionEEENS_6detail24ccl_api_type_attr_traitsIS3_XT_EE11return_typeERKT0_
_ZN3ccl2v17contextaSEOS1_
_ZN3ccl2v17contextaSERKS1_
_ZN3ccl2v17contextC1EOS1_
_ZN3ccl2v17contextC1EOSt10shared_ptrI16ccl_context_implE
_ZN3ccl2v17contextC1ERKS1_
_ZN3ccl2v17contextC2EOS1_
_ZN3ccl2v17contextC2EOSt10shared_ptrI16ccl_context_implE
_ZN3ccl2v17contextC2ERKS1_
_ZN3ccl2v17contextD1Ev
_ZN3ccl2v17contextD2Ev
_ZN3ccl2v18alltoallEPKvPvmNS0_8datatypeERKNS0_12communicatorERKNS0_13alltoall_attrERKSt6vectorINS0_5eventESaISC_EE
_ZN3ccl2v18alltoallEPKvPvmNS0_8datatypeERKNS0_12communicatorERKNS0_6streamERKNS0_13alltoall_attrERKSt6vectorINS0_5eventESaISF_EE
_ZN3ccl2v18alltoallERKSt6vectorIPvSaIS2_EES6_mNS0_8datatypeERKNS0_12communicatorERKNS0_6streamERKNS0_13alltoall_attrERKS1_INS0_5eventESaISH_EE
_ZN3ccl2v18alltoallIaNS0_5eventEEES2_PKT_PS3_mRKNS0_12communicatorERKNS0_13alltoall_attrERKSt6vectorIS2_SaIS2_EE
_ZN3ccl2v18alltoallIaNS0_5eventEEES2_PKT_PS3_mRKNS0_12communicatorERKNS0_6streamERKNS0_13alltoall_attrERKSt6vectorIS2_SaIS2_EE
_ZN3ccl2v18alltoallIaNS0_5eventEEES2_RKSt6vectorIPT_SaIS5_EES9_mRKNS0_12communicatorERKNS0_13alltoall_attrERKS3_IS2_SaIS2_EE
_ZN3ccl2v18alltoallIaNS0_5eventEEES2_RKSt6vectorIPT_SaIS5_EES9_mRKNS0_12communicatorERKNS0_6streamERKNS0_13alltoall_attrERKS3_IS2_SaIS2_EE
_ZN3ccl2v18alltoallIdNS0_5eventEEES2_PKT_PS3_mRKNS0_12communicatorERKNS0_13alltoall_attrERKSt6vectorIS2_SaIS2_EE
_ZN3ccl2v18alltoallIdNS0_5eventEEES2_PKT_PS3_mRKNS0_12communicatorERKNS0_6streamERKNS0_13alltoall_attrERKSt6vectorIS2_SaIS2_EE
_ZN3ccl2v18alltoallIdNS0_5eventEEES2_RKSt6vectorIPT_SaIS5_EES9_mRKNS0_12communicatorERKNS0_13alltoall_attrERKS3_IS2_SaIS2_EE
_ZN3ccl2v18alltoallIdNS0_5eventEEES2_RKSt6vectorIPT_SaIS5_EES9_mRKNS0_12communicatorERKNS0_6streamERKNS0_13alltoall_attrERKS3_IS2_SaIS2_EE
_ZN3ccl2v18alltoallIfNS0_5eventEEES2_PKT_PS3_mRKNS0_12communicatorERKNS0_13alltoall_attrERKSt6vectorIS2_SaIS2_EE
_ZN3ccl2v18alltoallIfNS0_5eventEEES2_PKT_PS3_mRKNS0_12communicatorERKNS0_6streamERKNS0_13alltoall_attrERKSt6vectorIS2_SaIS2_EE
_ZN3ccl2v18alltoallIfNS0_5eventEEES2_RKSt6vectorIPT_SaIS5_EES9_mRKNS0_12communicatorERKNS0_13alltoall_attrERKS3_IS2_SaIS2_EE
_ZN3ccl2v18alltoallIfNS0_5eventEEES2_RKSt6vectorIPT_SaIS5_EES9_mRKNS0_12communicatorERKNS0_6streamERKNS0_13alltoall_attrERKS3_IS2_SaIS2_EE
_ZN3ccl2v18alltoallIhNS0_5eventEEES2_PKT_PS3_mRKNS0_12communicatorERKNS0_13alltoall_attrERKSt6vectorIS2_SaIS2_EE
_ZN3ccl2v18alltoallIhNS0_5eventEEES2_PKT_PS3_mRKNS0_12communicatorERKNS0_6streamERKNS0_13alltoall_attrERKSt6vectorIS2_SaIS2_EE
_ZN3ccl2v18alltoallIhNS0_5eventEEES2_RKSt6vectorIPT_SaIS5_EES9_mRKNS0_12communicatorERKNS0_13alltoall_attrERKS3_IS2_SaIS2_EE
_ZN3ccl2v18alltoallIhNS0_5eventEEES2_RKSt6vectorIPT_SaIS5_EES9_mRKNS0_12communicatorERKNS0_6streamERKNS0_13alltoall_attrERKS3_IS2_SaIS2_EE
_ZN3ccl2v18alltoallIiNS0_5eventEEES2_PKT_PS3_mRKNS0_12communicatorERKNS0_13alltoall_attrERKSt6vectorIS2_SaIS2_EE
_ZN3ccl2v18alltoallIiNS0_5eventEEES2_PKT_PS3_mRKNS0_12communicatorERKNS0_6streamERKNS0_13alltoall_attrERKSt6vectorIS2_SaIS2_EE
_ZN3ccl2v18alltoallIiNS0_5eventEEES2_RKSt6vectorIPT_SaIS5_EES9_mRKNS0_12communicatorERKNS0_13alltoall_attrERKS3_IS2_SaIS2_EE
_ZN3ccl2v18alltoallIiNS0_5eventEEES2_RKSt6vectorIPT_SaIS5_EES9_mRKNS0_12communicatorERKNS0_6streamERKNS0_13alltoall_attrERKS3_IS2_SaIS2_EE
_ZN3ccl2v18alltoallIjNS0_5eventEEES2_PKT_PS3_mRKNS0_12communicatorERKNS0_13alltoall_attrERKSt6vectorIS2_SaIS2_EE
_ZN3ccl2v18alltoallIjNS0_5eventEEES2_PKT_PS3_mRKNS0_12communicatorERKNS0_6streamERKNS0_13alltoall_attrERKSt6vectorIS2_SaIS2_EE
_ZN3ccl2v18alltoallIjNS0_5eventEEES2_RKSt6vectorIPT_SaIS5_EES9_mRKNS0_12communicatorERKNS0_13alltoall_attrERKS3_IS2_SaIS2_EE
_ZN3ccl2v18alltoallIjNS0_5eventEEES2_RKSt6vectorIPT_SaIS5_EES9_mRKNS0_12communicatorERKNS0_6streamERKNS0_13alltoall_attrERKS3_IS2_SaIS2_EE
_ZN3ccl2v18alltoallIlNS0_5eventEEES2_PKT_PS3_mRKNS0_12communicatorERKNS0_13alltoall_attrERKSt6vectorIS2_SaIS2_EE
_ZN3ccl2v18alltoallIlNS0_5eventEEES2_PKT_PS3_mRKNS0_12communicatorERKNS0_6streamERKNS0_13alltoall_attrERKSt6vectorIS2_SaIS2_EE
_ZN3ccl2v18alltoallIlNS0_5eventEEES2_RKSt6vectorIPT_SaIS5_EES9_mRKNS0_12communicatorERKNS0_13alltoall_attrERKS3_IS2_SaIS2_EE
_ZN3ccl2v18alltoallIlNS0_5eventEEES2_RKSt6vectorIPT_SaIS5_EES9_mRKNS0_12communicatorERKNS0_6streamERKNS0_13alltoall_attrERKS3_IS2_SaIS2_EE
_ZN3ccl2v18alltoallImNS0_5eventEEES2_PKT_PS3_mRKNS0_12communicatorERKNS0_13alltoall_attrERKSt6vectorIS2_SaIS2_EE
_ZN3ccl2v18alltoallImNS0_5eventEEES2_PKT_PS3_mRKNS0_12communicatorERKNS0_6streamERKNS0_13alltoall_attrERKSt6vectorIS2_SaIS2_EE
_ZN3ccl2v18alltoallImNS0_5eventEEES2_RKSt6vectorIPT_SaIS5_EES9_mRKNS0_12communicatorERKNS0_13alltoall_attrERKS3_IS2_SaIS2_EE
_ZN3ccl2v18alltoallImNS0_5eventEEES2_RKSt6vectorIPT_SaIS5_EES9_mRKNS0_12communicatorERKNS0_6streamERKNS0_13alltoall_attrERKS3_IS2_SaIS2_EE
_ZN3ccl2v18alltoallIsNS0_5eventEEES2_PKT_PS3_mRKNS0_12communicatorERKNS0_13alltoall_attrERKSt6vectorIS2_SaIS2_EE
_ZN3ccl2v18alltoallIsNS0_5eventEEES2_PKT_PS3_mRKNS0_12communicatorERKNS0_6streamERKNS0_13alltoall_attrERKSt6vectorIS2_SaIS2_EE
_ZN3ccl2v18alltoallIsNS0_5eventEEES2_RKSt6vectorIPT_SaIS5_EES9_mRKNS0_12communicatorERKNS0_13alltoall_attrERKS3_IS2_SaIS2_EE
_ZN3ccl2v18alltoallIsNS0_5eventEEES2_RKSt6vectorIPT_SaIS5_EES9_mRKNS0_12communicatorERKNS0_6streamERKNS0_13alltoall_attrERKS3_IS2_SaIS2_EE
_ZN3ccl2v18alltoallItNS0_5eventEEES2_PKT_PS3_mRKNS0_12communicatorERKNS0_13alltoall_attrERKSt6vectorIS2_SaIS2_EE
_ZN3ccl2v18alltoallItNS0_5eventEEES2_PKT_PS3_mRKNS0_12communicatorERKNS0_6streamERKNS0_13alltoall_attrERKSt6vectorIS2_SaIS2_EE
_ZN3ccl2v18alltoallItNS0_5eventEEES2_RKSt6vectorIPT_SaIS5_EES9_mRKNS0_12communicatorERKNS0_13alltoall_attrERKS3_IS2_SaIS2_EE
_ZN3ccl2v18alltoallItNS0_5eventEEES2_RKSt6vectorIPT_SaIS5_EES9_mRKNS0_12communicatorERKNS0_6streamERKNS0_13alltoall_attrERKS3_IS2_SaIS2_EE
_ZN3ccl2v18kvs_attr3setILNS0_11kvs_attr_idE0ENS0_15library_versionEEET0_RKS5_
_ZN3ccl2v18kvs_attraSEOS1_
_ZN3ccl2v18kvs_attraSERKS1_
_ZN3ccl2v18kvs_attrC1ENS0_14ccl_empty_attrE
_ZN3ccl2v18kvs_attrC1EOS1_
_ZN3ccl2v18kvs_attrC1ERKNS0_15library_versionE
_ZN3ccl2v18kvs_attrC1ERKS1_
_ZN3ccl2v18kvs_attrC2ENS0_14ccl_empty_attrE
_ZN3ccl2v18kvs_attrC2EOS1_
_ZN3ccl2v18kvs_attrC2ERKNS0_15library_versionE
_ZN3ccl2v18kvs_attrC2ERKS1_
_ZN3ccl2v18kvs_attrD1Ev
_ZN3ccl2v18kvs_attrD2Ev
_ZN3ccl2v19allreduceEPKvPvmNS0_8datatypeENS0_9reductionERKNS0_12communicatorERKNS0_14allreduce_attrERKSt6vectorINS0_5eventESaISD_EE
_ZN3ccl2v19allreduceEPKvPvmNS0_8datatypeENS0_9reductionERKNS0_12communicatorERKNS0_6streamERKNS0_14allreduce_attrERKSt6vectorINS0_5eventESaISG_EE
_ZN3ccl2v19allreduceIaNS0_5eventEEES2_PKT_PS3_mNS0_9reductionERKNS0_12communicatorERKNS0_14allreduce_attrERKSt6vectorIS2_SaIS2_EE
_ZN3ccl2v19allreduceIaNS0_5eventEEES2_PKT_PS3_mNS0_9reductionERKNS0_12communicatorERKNS0_6streamERKNS0_14allreduce_attrERKSt6vectorIS2_SaIS2_EE
_ZN3ccl2v19allreduceIdNS0_5eventEEES2_PKT_PS3_mNS0_9reductionERKNS0_12communicatorERKNS0_14allreduce_attrERKSt6vectorIS2_SaIS2_EE
_ZN3ccl2v19allreduceIdNS0_5eventEEES2_PKT_PS3_mNS0_9reductionERKNS0_12communicatorERKNS0_6streamERKNS0_14allreduce_attrERKSt6vectorIS2_SaIS2_EE
_ZN3ccl2v19allreduceIfNS0_5eventEEES2_PKT_PS3_mNS0_9reductionERKNS0_12communicatorERKNS0_14allreduce_attrERKSt6vectorIS2_SaIS2_EE
_ZN3ccl2v19allreduceIfNS0_5eventEEES2_PKT_PS3_mNS0_9reductionERKNS0_12communicatorERKNS0_6streamERKNS0_14allreduce_attrERKSt6vectorIS2_SaIS2_EE
_ZN3ccl2v19allreduceIhNS0_5eventEEES2_PKT_PS3_mNS0_9reductionERKNS0_12communicatorERKNS0_14allreduce_attrERKSt6vectorIS2_SaIS2_EE
_ZN3ccl2v19allreduceIhNS0_5eventEEES2_PKT_PS3_mNS0_9reductionERKNS0_12communicatorERKNS0_6streamERKNS0_14allreduce_attrERKSt6vectorIS2_SaIS2_EE
_ZN3ccl2v19allreduceIiNS0_5eventEEES2_PKT_PS3_mNS0_9reductionERKNS0_12communicatorERKNS0_14allreduce_attrERKSt6vectorIS2_SaIS2_EE
_ZN3ccl2v19allreduceIiNS0_5eventEEES2_PKT_PS3_mNS0_9reductionERKNS0_12communicatorERKNS0_6streamERKNS0_14allreduce_attrERKSt6vectorIS2_SaIS2_EE
_ZN3ccl2v19allreduceIjNS0_5eventEEES2_PKT_PS3_mNS0_9reductionERKNS0_12communicatorERKNS0_14allreduce_attrERKSt6vectorIS2_SaIS2_EE
_ZN3ccl2v19allreduceIjNS0_5eventEEES2_PKT_PS3_mNS0_9reductionERKNS0_12communicatorERKNS0_6streamERKNS0_14allreduce_attrERKSt6vectorIS2_SaIS2_EE
_ZN3ccl2v19allreduceIlNS0_5eventEEES2_PKT_PS3_mNS0_9reductionERKNS0_12communicatorERKNS0_14allreduce_attrERKSt6vectorIS2_SaIS2_EE
_ZN3ccl2v19allreduceIlNS0_5eventEEES2_PKT_PS3_mNS0_9reductionERKNS0_12communicatorERKNS0_6streamERKNS0_14allreduce_attrERKSt6vectorIS2_SaIS2_EE
_ZN3ccl2v19allreduceImNS0_5eventEEES2_PKT_PS3_mNS0_9reductionERKNS0_12communicatorERKNS0_14allreduce_attrERKSt6vectorIS2_SaIS2_EE
_ZN3ccl2v19allreduceImNS0_5eventEEES2_PKT_PS3_mNS0_9reductionERKNS0_12communicatorERKNS0_6streamERKNS0_14allreduce_attrERKSt6vectorIS2_SaIS2_EE
_ZN3ccl2v19allreduceIsNS0_5eventEEES2_PKT_PS3_mNS0_9reductionERKNS0_12communicatorERKNS0_14allreduce_attrERKSt6vectorIS2_SaIS2_EE
_ZN3ccl2v19allreduceIsNS0_5eventEEES2_PKT_PS3_mNS0_9reductionERKNS0_12communicatorERKNS0_6streamERKNS0_14allreduce_attrERKSt6vectorIS2_SaIS2_EE
_ZN3ccl2v19allreduceItNS0_5eventEEES2_PKT_PS3_mNS0_9reductionERKNS0_12communicatorERKNS0_14allreduce_attrERKSt6vectorIS2_SaIS2_EE
_ZN3ccl2v19allreduceItNS0_5eventEEES2_PKT_PS3_mNS0_9reductionERKNS0_12communicatorERKNS0_6streamERKNS0_14allreduce_attrERKSt6vectorIS2_SaIS2_EE
_ZN3ccl2v19alltoallvEPKvRKSt6vectorImSaImEEPvS7_NS0_8datatypeERKNS0_12communicatorERKNS0_14alltoallv_attrERKS3_INS0_5eventESaISG_EE
_ZN3ccl2v19alltoallvEPKvRKSt6vectorImSaImEEPvS7_NS0_8datatypeERKNS0_12communicatorERKNS0_6streamERKNS0_14alltoallv_attrERKS3_INS0_5eventESaISJ_EE
_ZN3ccl2v19alltoallvERKSt6vectorIPvSaIS2_EERKS1_ImSaImEES6_SA_NS0_8datatypeERKNS0_12communicatorERKNS0_14alltoallv_attrERKS1_INS0_5eventESaISI_EE
_ZN3ccl2v19alltoallvERKSt6vectorIPvSaIS2_EERKS1_ImSaImEES6_SA_NS0_8datatypeERKNS0_12communicatorERKNS0_6streamERKNS0_14alltoallv_attrERKS1_INS0_5eventESaISL_EE
_ZN3ccl2v19alltoallvIaNS0_5eventEEES2_PKT_RKSt6vectorImSaImEEPS3_SA_RKNS0_12communicatorERKNS0_14alltoallv_attrERKS6_IS2_SaIS2_EE
_ZN3ccl2v19alltoallvIaNS0_5eventEEES2_PKT_RKSt6vectorImSaImEEPS3_SA_RKNS0_12communicatorERKNS0_6streamERKNS0_14alltoallv_attrERKS6_IS2_SaIS2_EE
_ZN3ccl2v19alltoallvIaNS0_5eventEEES2_RKSt6vectorIPT_SaIS5_EERKS3_ImSaImEES9_SD_RKNS0_12communicatorERKNS0_14alltoallv_attrERKS3_IS2_SaIS2_EE
_ZN3ccl2v19alltoallvIaNS0_5eventEEES2_RKSt6vectorIPT_SaIS5_EERKS3_ImSaImEES9_SD_RKNS0_12communicatorERKNS0_6streamERKNS0_14alltoallv_attrERKS3_IS2_SaIS2_EE
_ZN3ccl2v19alltoallvIdNS0_5eventEEES2_PKT_RKSt6vectorImSaImEEPS3_SA_RKNS0_12communicatorERKNS0_14alltoallv_attrERKS6_IS2_SaIS2_EE
_ZN3ccl2v19alltoallvIdNS0_5eventEEES2_PKT_RKSt6vectorImSaImEEPS3_SA_RKNS0_12communicatorERKNS0_6streamERKNS0_14alltoallv_attrERKS6_IS2_SaIS2_EE
_ZN3ccl2v19alltoallvIdNS0_5eventEEES2_RKSt6vectorIPT_SaIS5_EERKS3_ImSaImEES9_SD_RKNS0_12communicatorERKNS0_14alltoallv_attrERKS3_IS2_SaIS2_EE
_ZN3ccl2v19alltoallvIdNS0_5eventEEES2_RKSt6vectorIPT_SaIS5_EERKS3_ImSaImEES9_SD_RKNS0_12communicatorERKNS0_6streamERKNS0_14alltoallv_attrERKS3_IS2_SaIS2_EE
_ZN3ccl2v19alltoallvIfNS0_5eventEEES2_PKT_RKSt6vectorImSaImEEPS3_SA_RKNS0_12communicatorERKNS0_14alltoallv_attrERKS6_IS2_SaIS2_EE
_ZN3ccl2v19alltoallvIfNS0_5eventEEES2_PKT_RKSt6vectorImSaImEEPS3_SA_RKNS0_12communicatorERKNS0_6streamERKNS0_14alltoallv_attrERKS6_IS2_SaIS2_EE
_ZN3ccl2v19alltoallvIfNS0_5eventEEES2_RKSt6vectorIPT_SaIS5_EERKS3_ImSaImEES9_SD_RKNS0_12communicatorERKNS0_14alltoallv_attrERKS3_IS2_SaIS2_EE
_ZN3ccl2v19alltoallvIfNS0_5eventEEES2_RKSt6vectorIPT_SaIS5_EERKS3_ImSaImEES9_SD_RKNS0_12communicatorERKNS0_6streamERKNS0_14alltoallv_attrERKS3_IS2_SaIS2_EE
_ZN3ccl2v19alltoallvIhNS0_5eventEEES2_PKT_RKSt6vectorImSaImEEPS3_SA_RKNS0_12communicatorERKNS0_14alltoallv_attrERKS6_IS2_SaIS2_EE
_ZN3ccl2v19alltoallvIhNS0_5eventEEES2_PKT_RKSt6vectorImSaImEEPS3_SA_RKNS0_12communicatorERKNS0_6streamERKNS0_14alltoallv_attrERKS6_IS2_SaIS2_EE
_ZN3ccl2v19alltoallvIhNS0_5eventEEES2_RKSt6vectorIPT_SaIS5_EERKS3_ImSaImEES9_SD_RKNS0_12communicatorERKNS0_14alltoallv_attrERKS3_IS2_SaIS2_EE
_ZN3ccl2v19alltoallvIhNS0_5eventEEES2_RKSt6vectorIPT_SaIS5_EERKS3_ImSaImEES9_SD_RKNS0_12communicatorERKNS0_6streamERKNS0_14alltoallv_attrERKS3_IS2_SaIS2_EE
_ZN3ccl2v19alltoallvIiNS0_5eventEEES2_PKT_RKSt6vectorImSaImEEPS3_SA_RKNS0_12communicatorERKNS0_14alltoallv_attrERKS6_IS2_SaIS2_EE
_ZN3ccl2v19alltoallvIiNS0_5eventEEES2_PKT_RKSt6vectorImSaImEEPS3_SA_RKNS0_12communicatorERKNS0_6streamERKNS0_14alltoallv_attrERKS6_IS2_SaIS2_EE
_ZN3ccl2v19alltoallvIiNS0_5eventEEES2_RKSt6vectorIPT_SaIS5_EERKS3_ImSaImEES9_SD_RKNS0_12communicatorERKNS0_14alltoallv_attrERKS3_IS2_SaIS2_EE
_ZN3ccl2v19alltoallvIiNS0_5eventEEES2_RKSt6vectorIPT_SaIS5_EERKS3_ImSaImEES9_SD_RKNS0_12communicatorERKNS0_6streamERKNS0_14alltoallv_attrERKS3_IS2_SaIS2_EE
_ZN3ccl2v19alltoallvIjNS0_5eventEEES2_PKT_RKSt6vectorImSaImEEPS3_SA_RKNS0_12communicatorERKNS0_14alltoallv_attrERKS6_IS2_SaIS2_EE
_ZN3ccl2v19alltoallvIjNS0_5eventEEES2_PKT_RKSt6vectorImSaImEEPS3_SA_RKNS0_12communicatorERKNS0_6streamERKNS0_14alltoallv_attrERKS6_IS2_SaIS2_EE
_ZN3ccl2v19alltoallvIjNS0_5eventEEES2_RKSt6vectorIPT_SaIS5_EERKS3_ImSaImEES9_SD_RKNS0_12communicatorERKNS0_14alltoallv_attrERKS3_IS2_SaIS2_EE
_ZN3ccl2v19alltoallvIjNS0_5eventEEES2_RKSt6vectorIPT_SaIS5_EERKS3_ImSaImEES9_SD_RKNS0_12communicatorERKNS0_6streamERKNS0_14alltoallv_attrERKS3_IS2_SaIS2_EE
_ZN3ccl2v19alltoallvIlNS0_5eventEEES2_PKT_RKSt6vectorImSaImEEPS3_SA_RKNS0_12communicatorERKNS0_14alltoallv_attrERKS6_IS2_SaIS2_EE
_ZN3ccl2v19alltoallvIlNS0_5eventEEES2_PKT_RKSt6vectorImSaImEEPS3_SA_RKNS0_12communicatorERKNS0_6streamERKNS0_14alltoallv_attrERKS6_IS2_SaIS2_EE
_ZN3ccl2v19alltoallvIlNS0_5eventEEES2_RKSt6vectorIPT_SaIS5_EERKS3_ImSaImEES9_SD_RKNS0_12communicatorERKNS0_14alltoallv_attrERKS3_IS2_SaIS2_EE
_ZN3ccl2v19alltoallvIlNS0_5eventEEES2_RKSt6vectorIPT_SaIS5_EERKS3_ImSaImEES9_SD_RKNS0_12communicatorERKNS0_6streamERKNS0_14alltoallv_attrERKS3_IS2_SaIS2_EE
_ZN3ccl2v19alltoallvImNS0_5eventEEES2_PKT_RKSt6vectorImSaImEEPS3_SA_RKNS0_12communicatorERKNS0_14alltoallv_attrERKS6_IS2_SaIS2_EE
_ZN3ccl2v19alltoallvImNS0_5eventEEES2_PKT_RKSt6vectorImSaImEEPS3_SA_RKNS0_12communicatorERKNS0_6streamERKNS0_14alltoallv_attrERKS6_IS2_SaIS2_EE
_ZN3ccl2v19alltoallvImNS0_5eventEEES2_RKSt6vectorIPT_SaIS5_EERKS3_ImSaImEES9_SD_RKNS0_12communicatorERKNS0_14alltoallv_attrERKS3_IS2_SaIS2_EE
_ZN3ccl2v19alltoallvImNS0_5eventEEES2_RKSt6vectorIPT_SaIS5_EERKS3_ImSaImEES9_SD_RKNS0_12communicatorERKNS0_6streamERKNS0_14alltoallv_attrERKS3_IS2_SaIS2_EE
_ZN3ccl2v19alltoallvIsNS0_5eventEEES2_PKT_RKSt6vectorImSaImEEPS3_SA_RKNS0_12communicatorERKNS0_14alltoallv_attrERKS6_IS2_SaIS2_EE
_ZN3ccl2v19alltoallvIsNS0_5eventEEES2_PKT_RKSt6vectorImSaImEEPS3_SA_RKNS0_12communicatorERKNS0_6streamERKNS0_14alltoallv_attrERKS6_IS2_SaIS2_EE
_ZN3ccl2v19alltoallvIsNS0_5eventEEES2_RKSt6vectorIPT_SaIS5_EERKS3_ImSaImEES9_SD_RKNS0_12communicatorERKNS0_14alltoallv_attrERKS3_IS2_SaIS2_EE
_ZN3ccl2v19alltoallvIsNS0_5eventEEES2_RKSt6vectorIPT_SaIS5_EERKS3_ImSaImEES9_SD_RKNS0_12communicatorERKNS0_6streamERKNS0_14alltoallv_attrERKS3_IS2_SaIS2_EE
_ZN3ccl2v19alltoallvItNS0_5eventEEES2_PKT_RKSt6vectorImSaImEEPS3_SA_RKNS0_12communicatorERKNS0_14alltoallv_attrERKS6_IS2_SaIS2_EE
_ZN3ccl2v19alltoallvItNS0_5eventEEES2_PKT_RKSt6vectorImSaImEEPS3_SA_RKNS0_12communicatorERKNS0_6streamERKNS0_14alltoallv_attrERKS6_IS2_SaIS2_EE
_ZN3ccl2v19alltoallvItNS0_5eventEEES2_RKSt6vectorIPT_SaIS5_EERKS3_ImSaImEES9_SD_RKNS0_12communicatorERKNS0_14alltoallv_attrERKS3_IS2_SaIS2_EE
_ZN3ccl2v19alltoallvItNS0_5eventEEES2_RKSt6vectorIPT_SaIS5_EERKS3_ImSaImEES9_SD_RKNS0_12communicatorERKNS0_6streamERKNS0_14alltoallv_attrERKS3_IS2_SaIS2_EE
_ZN3ccl2v19broadcastEPvmNS0_8datatypeEiRKNS0_12communicatorERKNS0_14broadcast_attrERKSt6vectorINS0_5eventESaISA_EE
_ZN3ccl2v19broadcastEPvmNS0_8datatypeEiRKNS0_12communicatorERKNS0_6streamERKNS0_14broadcast_attrERKSt6vectorINS0_5eventESaISD_EE
_ZN3ccl2v19broadcastIaNS0_5eventEEES2_PT_miRKNS0_12communicatorERKNS0_14broadcast_attrERKSt6vectorIS2_SaIS2_EE
_ZN3ccl2v19broadcastIaNS0_5eventEEES2_PT_miRKNS0_12communicatorERKNS0_6streamERKNS0_14broadcast_attrERKSt6vectorIS2_SaIS2_EE
_ZN3ccl2v19broadcastIdNS0_5eventEEES2_PT_miRKNS0_12communicatorERKNS0_14broadcast_attrERKSt6vectorIS2_SaIS2_EE
_ZN3ccl2v19broadcastIdNS0_5eventEEES2_PT_miRKNS0_12communicatorERKNS0_6streamERKNS0_14broadcast_attrERKSt6vectorIS2_SaIS2_EE
_ZN3ccl2v19broadcastIfNS0_5eventEEES2_PT_miRKNS0_12communicatorERKNS0_14broadcast_attrERKSt6vectorIS2_SaIS2_EE
_ZN3ccl2v19broadcastIfNS0_5eventEEES2_PT_miRKNS0_12communicatorERKNS0_6streamERKNS0_14broadcast_attrERKSt6vectorIS2_SaIS2_EE
_ZN3ccl2v19broadcastIhNS0_5eventEEES2_PT_miRKNS0_12communicatorERKNS0_14broadcast_attrERKSt6vectorIS2_SaIS2_EE
_ZN3ccl2v19broadcastIhNS0_5eventEEES2_PT_miRKNS0_12communicatorERKNS0_6streamERKNS0_14broadcast_attrERKSt6vectorIS2_SaIS2_EE
_ZN3ccl2v19broadcastIiNS0_5eventEEES2_PT_miRKNS0_12communicatorERKNS0_14broadcast_attrERKSt6vectorIS2_SaIS2_EE
_ZN3ccl2v19broadcastIiNS0_5eventEEES2_PT_miRKNS0_12communicatorERKNS0_6streamERKNS0_14broadcast_attrERKSt6vectorIS2_SaIS2_EE
_ZN3ccl2v19broadcastIjNS0_5eventEEES2_PT_miRKNS0_12communicatorERKNS0_14broadcast_attrERKSt6vectorIS2_SaIS2_EE
_ZN3ccl2v19broadcastIjNS0_5eventEEES2_PT_miRKNS0_12communicatorERKNS0_6streamERKNS0_14broadcast_attrERKSt6vectorIS2_SaIS2_EE
_ZN3ccl2v19broadcastIlNS0_5eventEEES2_PT_miRKNS0_12communicatorERKNS0_14broadcast_attrERKSt6vectorIS2_SaIS2_EE
_ZN3ccl2v19broadcastIlNS0_5eventEEES2_PT_miRKNS0_12communicatorERKNS0_6streamERKNS0_14broadcast_attrERKSt6vectorIS2_SaIS2_EE
_ZN3ccl2v19broadcastImNS0_5eventEEES2_PT_miRKNS0_12communicatorERKNS0_14broadcast_attrERKSt6vectorIS2_SaIS2_EE
_ZN3ccl2v19broadcastImNS0_5eventEEES2_PT_miRKNS0_12communicatorERKNS0_6streamERKNS0_14broadcast_attrERKSt6vectorIS2_SaIS2_EE
_ZN3ccl2v19broadcastIsNS0_5eventEEES2_PT_miRKNS0_12communicatorERKNS0_14broadcast_attrERKSt6vectorIS2_SaIS2_EE
_ZN3ccl2v19broadcastIsNS0_5eventEEES2_PT_miRKNS0_12communicatorERKNS0_6streamERKNS0_14broadcast_attrERKSt6vectorIS2_SaIS2_EE
_ZN3ccl2v19broadcastItNS0_5eventEEES2_PT_miRKNS0_12communicatorERKNS0_14broadcast_attrERKSt6vectorIS2_SaIS2_EE
_ZN3ccl2v19broadcastItNS0_5eventEEES2_PT_miRKNS0_12communicatorERKNS0_6streamERKNS0_14broadcast_attrERKSt6vectorIS2_SaIS2_EE
_ZN3ccl2v19comm_attr3setILNS0_12comm_attr_idE0ENS0_15library_versionEEET0_RKS5_
_ZN3ccl2v19comm_attraSEOS1_
_ZN3ccl2v19comm_attraSERKS1_
_ZN3ccl2v19comm_attrC1ENS0_14ccl_empty_attrE
_ZN3ccl2v19comm_attrC1EOS1_
_ZN3ccl2v19comm_attrC1ERKNS0_15library_versionE
_ZN3ccl2v19comm_attrC1ERKS1_
_ZN3ccl2v19comm_attrC2ENS0_14ccl_empty_attrE
_ZN3ccl2v19comm_attrC2EOS1_
_ZN3ccl2v19comm_attrC2ERKNS0_15library_versionE
_ZN3ccl2v19comm_attrC2ERKS1_
_ZN3ccl2v19comm_attrD1Ev
_ZN3ccl2v19comm_attrD2Ev
_ZN3ccl2v19init_attraSEOS1_
_ZN3ccl2v19init_attraSERKS1_
_ZN3ccl2v19init_attrC1EOS1_
_ZN3ccl2v19init_attrC1ERKNS0_15library_versionE
_ZN3ccl2v19init_attrC1ERKS1_
_ZN3ccl2v19init_attrC2EOS1_
_ZN3ccl2v19init_attrC2ERKNS0_15library_versionE
_ZN3ccl2v19init_attrC2ERKS1_
_ZN3ccl2v19init_attrD1Ev
_ZN3ccl2v19init_attrD2Ev
_ZN3ccl6detail11environment13create_streamISt10shared_ptrIN6native10ccl_deviceEES3_INS4_11ccl_contextEEvEENS_2v16streamERT_RT0_
_ZN3ccl6detail11environment13create_streamISt10shared_ptrIN6native16ccl_device_queueEEvEENS_2v16streamERT_
_ZN3ccl6detail11environment19get_library_versionEv
_ZN3ccl6detail11environment8instanceEv
_ZN3ccl7preview16sparse_allreduceEPKvmS2_mPvmS3_mNS_2v18datatypeES5_NS4_9reductionERKNS4_12communicatorERKNS4_21sparse_allreduce_attrERKSt6vectorINS4_5eventESaISE_EE
_ZN3ccl7preview16sparse_allreduceEPKvmS2_mPvmS3_mNS_2v18datatypeES5_NS4_9reductionERKNS4_12communicatorERKNS4_6streamERKNS4_21sparse_allreduce_attrERKSt6vectorINS4_5eventESaISH_EE
_ZN3ccl7preview16sparse_allreduceIifNS_2v15eventEEES3_PKT_mPKT0_mPS4_mPS7_mNS2_9reductionERKNS2_12communicatorERKNS2_21sparse_allreduce_attrERKSt6vectorIS3_SaIS3_EE
_ZN3ccl7preview16sparse_allreduceIifNS_2v15eventEEES3_PKT_mPKT0_mPS4_mPS7_mNS2_9reductionERKNS2_12communicatorERKNS2_6streamERKNS2_21sparse_allreduce_attrERKSt6vectorIS3_SaIS3_EE
_ZN3ccl7preview16sparse_allreduceIiNS_2v18bfloat16ENS2_5eventEEES4_PKT_mPKT0_mPS5_mPS8_mNS2_9reductionERKNS2_12communicatorERKNS2_21sparse_allreduce_attrERKSt6vectorIS4_SaIS4_EE
_ZN3ccl7preview16sparse_allreduceIiNS_2v18bfloat16ENS2_5eventEEES4_PKT_mPKT0_mPS5_mPS8_mNS2_9reductionERKNS2_12communicatorERKNS2_6streamERKNS2_21sparse_allreduce_attrERKSt6vectorIS4_SaIS4_EE
_ZN3ccl7preview16sparse_allreduceIlfNS_2v15eventEEES3_PKT_mPKT0_mPS4_mPS7_mNS2_9reductionERKNS2_12communicatorERKNS2_21sparse_allreduce_attrERKSt6vectorIS3_SaIS3_EE
_ZN3ccl7preview16sparse_allreduceIlfNS_2v15eventEEES3_PKT_mPKT0_mPS4_mPS7_mNS2_9reductionERKNS2_12communicatorERKNS2_6streamERKNS2_21sparse_allreduce_attrERKSt6vectorIS3_SaIS3_EE
_ZN3ccl7preview16sparse_allreduceIlNS_2v18bfloat16ENS2_5eventEEES4_PKT_mPKT0_mPS5_mPS8_mNS2_9reductionERKNS2_12communicatorERKNS2_21sparse_allreduce_attrERKSt6vectorIS4_SaIS4_EE
_ZN3ccl7preview16sparse_allreduceIlNS_2v18bfloat16ENS2_5eventEEES4_PKT_mPKT0_mPS5_mPS8_mNS2_9reductionERKNS2_12communicatorERKNS2_6streamERKNS2_21sparse_allreduce_attrERKSt6vectorIS4_SaIS4_EE
_ZN3ccl7preview19create_communicatorEiSt10shared_ptrINS_2v113kvs_interfaceEERKNS2_9comm_attrE
_ZN3ccl7preview19create_communicatorERKNS_2v19comm_attrE
_ZN3ccl7preview19split_communicatorsERKSt6vectorISt4pairINS_2v112communicatorENS3_15comm_split_attrEESaIS6_EE
_ZNK3ccl2v111reduce_attr3getILNS0_14reduce_attr_idE5EEERKNS_6detail24ccl_api_type_attr_traitsIS3_XT_EE11return_typeEv
_ZNK3ccl2v111reduce_attr3getILNS0_17operation_attr_idE0EEERKNS_6detail24ccl_api_type_attr_traitsIS3_XT_EE11return_typeEv
_ZNK3ccl2v111reduce_attr3getILNS0_17operation_attr_idE1EEERKNS_6detail24ccl_api_type_attr_traitsIS3_XT_EE11return_typeEv
_ZNK3ccl2v111reduce_attr3getILNS0_17operation_attr_idE2EEERKNS_6detail24ccl_api_type_attr_traitsIS3_XT_EE11return_typeEv
_ZNK3ccl2v111reduce_attr3getILNS0_17operation_attr_idE3EEERKNS_6detail24ccl_api_type_attr_traitsIS3_XT_EE11return_typeEv
_ZNK3ccl2v111reduce_attr3getILNS0_17operation_attr_idE4EEERKNS_6detail24ccl_api_type_attr_traitsIS3_XT_EE11return_typeEv
_ZNK3ccl2v112barrier_attr3getILNS0_17operation_attr_idE0EEERKNS_6detail24ccl_api_type_attr_traitsIS3_XT_EE11return_typeEv
_ZNK3ccl2v112barrier_attr3getILNS0_17operation_attr_idE1EEERKNS_6detail24ccl_api_type_attr_traitsIS3_XT_EE11return_typeEv
_ZNK3ccl2v112barrier_attr3getILNS0_17operation_attr_idE2EEERKNS_6detail24ccl_api_type_attr_traitsIS3_XT_EE11return_typeEv
_ZNK3ccl2v112barrier_attr3getILNS0_17operation_attr_idE3EEERKNS_6detail24ccl_api_type_attr_traitsIS3_XT_EE11return_typeEv
_ZNK3ccl2v112barrier_attr3getILNS0_17operation_attr_idE4EEERKNS_6detail24ccl_api_type_attr_traitsIS3_XT_EE11return_typeEv
_ZNK3ccl2v112communicator10get_deviceEv
_ZNK3ccl2v112communicator11get_contextEv
_ZNK3ccl2v112communicator4rankEv
_ZNK3ccl2v112communicator4sizeEv
_ZNK3ccl2v113alltoall_attr3getILNS0_17operation_attr_idE0EEERKNS_6detail24ccl_api_type_attr_traitsIS3_XT_EE11return_typeEv
_ZNK3ccl2v113alltoall_attr3getILNS0_17operation_attr_idE1EEERKNS_6detail24ccl_api_type_attr_traitsIS3_XT_EE11return_typeEv
_ZNK3ccl2v113alltoall_attr3getILNS0_17operation_attr_idE2EEERKNS_6detail24ccl_api_type_attr_traitsIS3_XT_EE11return_typeEv
_ZNK3ccl2v113alltoall_attr3getILNS0_17operation_attr_idE3EEERKNS_6detail24ccl_api_type_attr_traitsIS3_XT_EE11return_typeEv
_ZNK3ccl2v113alltoall_attr3getILNS0_17operation_attr_idE4EEERKNS_6detail24ccl_api_type_attr_traitsIS3_XT_EE11return_typeEv
_ZNK3ccl2v113datatype_attr3getILNS0_16datatype_attr_idE0EEERKNS_6detail24ccl_api_type_attr_traitsIS3_XT_EE11return_typeEv
_ZNK3ccl2v113datatype_attr3getILNS0_16datatype_attr_idE1EEERKNS_6detail24ccl_api_type_attr_traitsIS3_XT_EE11return_typeEv
_ZNK3ccl2v114allreduce_attr3getILNS0_17allreduce_attr_idE5EEERKNS_6detail24ccl_api_type_attr_traitsIS3_XT_EE11return_typeEv
_ZNK3ccl2v114allreduce_attr3getILNS0_17operation_attr_idE0EEERKNS_6detail24ccl_api_type_attr_traitsIS3_XT_EE11return_typeEv
_ZNK3ccl2v114allreduce_attr3getILNS0_17operation_attr_idE1EEERKNS_6detail24ccl_api_type_attr_traitsIS3_XT_EE11return_typeEv
_ZNK3ccl2v114allreduce_attr3getILNS0_17operation_attr_idE2EEERKNS_6detail24ccl_api_type_attr_traitsIS3_XT_EE11return_typeEv
_ZNK3ccl2v114allreduce_attr3getILNS0_17operation_attr_idE3EEERKNS_6detail24ccl_api_type_attr_traitsIS3_XT_EE11return_typeEv
_ZNK3ccl2v114allreduce_attr3getILNS0_17operation_attr_idE4EEERKNS_6detail24ccl_api_type_attr_traitsIS3_XT_EE11return_typeEv
_ZNK3ccl2v114alltoallv_attr3getILNS0_17operation_attr_idE0EEERKNS_6detail24ccl_api_type_attr_traitsIS3_XT_EE11return_typeEv
_ZNK3ccl2v114alltoallv_attr3getILNS0_17operation_attr_idE1EEERKNS_6detail24ccl_api_type_attr_traitsIS3_XT_EE11return_typeEv
_ZNK3ccl2v114alltoallv_attr3getILNS0_17operation_attr_idE2EEERKNS_6detail24ccl_api_type_attr_traitsIS3_XT_EE11return_typeEv
_ZNK3ccl2v114alltoallv_attr3getILNS0_17operation_attr_idE3EEERKNS_6detail24ccl_api_type_attr_traitsIS3_XT_EE11return_typeEv
_ZNK3ccl2v114alltoallv_attr3getILNS0_17operation_attr_idE4EEERKNS_6detail24ccl_api_type_attr_traitsIS3_XT_EE11return_typeEv
_ZNK3ccl2v114broadcast_attr3getILNS0_17operation_attr_idE0EEERKNS_6detail24ccl_api_type_attr_traitsIS3_XT_EE11return_typeEv
_ZNK3ccl2v114broadcast_attr3getILNS0_17operation_attr_idE1EEERKNS_6detail24ccl_api_type_attr_traitsIS3_XT_EE11return_typeEv
_ZNK3ccl2v114broadcast_attr3getILNS0_17operation_attr_idE2EEERKNS_6detail24ccl_api_type_attr_traitsIS3_XT_EE11return_typeEv
_ZNK3ccl2v114broadcast_attr3getILNS0_17operation_attr_idE3EEERKNS_6detail24ccl_api_type_attr_traitsIS3_XT_EE11return_typeEv
_ZNK3ccl2v114broadcast_attr3getILNS0_17operation_attr_idE4EEERKNS_6detail24ccl_api_type_attr_traitsIS3_XT_EE11return_typeEv
_ZNK3ccl2v115allgatherv_attr3getILNS0_17operation_attr_idE0EEERKNS_6detail24ccl_api_type_attr_traitsIS3_XT_EE11return_typeEv
_ZNK3ccl2v115allgatherv_attr3getILNS0_17operation_attr_idE1EEERKNS_6detail24ccl_api_type_attr_traitsIS3_XT_EE11return_typeEv
_ZNK3ccl2v115allgatherv_attr3getILNS0_17operation_attr_idE2EEERKNS_6detail24ccl_api_type_attr_traitsIS3_XT_EE11return_typeEv
_ZNK3ccl2v115allgatherv_attr3getILNS0_17operation_attr_idE3EEERKNS_6detail24ccl_api_type_attr_traitsIS3_XT_EE11return_typeEv
_ZNK3ccl2v115allgatherv_attr3getILNS0_17operation_attr_idE4EEERKNS_6detail24ccl_api_type_attr_traitsIS3_XT_EE11return_typeEv
_ZNK3ccl2v115comm_split_attr3getILNS0_18comm_split_attr_idE0EEERKNS_6detail24ccl_api_type_attr_traitsIS3_XT_EE4typeEv
_ZNK3ccl2v115comm_split_attr3getILNS0_18comm_split_attr_idE1EEERKNS_6detail24ccl_api_type_attr_traitsIS3_XT_EE4typeEv
_ZNK3ccl2v115comm_split_attr3getILNS0_18comm_split_attr_idE2EEERKNS_6detail24ccl_api_type_attr_traitsIS3_XT_EE4typeEv
_ZNK3ccl2v115comm_split_attr8is_validILNS0_18comm_split_attr_idE0EEEbv
_ZNK3ccl2v115comm_split_attr8is_validILNS0_18comm_split_attr_idE1EEEbv
_ZNK3ccl2v115comm_split_attr8is_validILNS0_18comm_split_attr_idE2EEEbv
_ZNK3ccl2v119reduce_scatter_attr3getILNS0_17operation_attr_idE0EEERKNS_6detail24ccl_api_type_attr_traitsIS3_XT_EE11return_typeEv
_ZNK3ccl2v119reduce_scatter_attr3getILNS0_17operation_attr_idE1EEERKNS_6detail24ccl_api_type_attr_traitsIS3_XT_EE11return_typeEv
_ZNK3ccl2v119reduce_scatter_attr3getILNS0_17operation_attr_idE2EEERKNS_6detail24ccl_api_type_attr_traitsIS3_XT_EE11return_typeEv
_ZNK3ccl2v119reduce_scatter_attr3getILNS0_17operation_attr_idE3EEERKNS_6detail24ccl_api_type_attr_traitsIS3_XT_EE11return_typeEv
_ZNK3ccl2v119reduce_scatter_attr3getILNS0_17operation_attr_idE4EEERKNS_6detail24ccl_api_type_attr_traitsIS3_XT_EE11return_typeEv
_ZNK3ccl2v119reduce_scatter_attr3getILNS0_22reduce_scatter_attr_idE5EEERKNS_6detail24ccl_api_type_attr_traitsIS3_XT_EE11return_typeEv
_ZNK3ccl2v121sparse_allreduce_attr3getILNS0_17operation_attr_idE0EEERKNS_6detail24ccl_api_type_attr_traitsIS3_XT_EE11return_typeEv
_ZNK3ccl2v121sparse_allreduce_attr3getILNS0_17operation_attr_idE1EEERKNS_6detail24ccl_api_type_attr_traitsIS3_XT_EE11return_typeEv
_ZNK3ccl2v121sparse_allreduce_attr3getILNS0_17operation_attr_idE2EEERKNS_6detail24ccl_api_type_attr_traitsIS3_XT_EE11return_typeEv
_ZNK3ccl2v121sparse_allreduce_attr3getILNS0_17operation_attr_idE3EEERKNS_6detail24ccl_api_type_attr_traitsIS3_XT_EE11return_typeEv
_ZNK3ccl2v121sparse_allreduce_attr3getILNS0_17operation_attr_idE4EEERKNS_6detail24ccl_api_type_attr_traitsIS3_XT_EE11return_typeEv
_ZNK3ccl2v121sparse_allreduce_attr3getILNS0_24sparse_allreduce_attr_idE5EEERKNS_6detail24ccl_api_type_attr_traitsIS3_XT_EE11return_typeEv
_ZNK3ccl2v121sparse_allreduce_attr3getILNS0_24sparse_allreduce_attr_idE6EEERKNS_6detail24ccl_api_type_attr_traitsIS3_XT_EE11return_typeEv
_ZNK3ccl2v121sparse_allreduce_attr3getILNS0_24sparse_allreduce_attr_idE7EEERKNS_6detail24ccl_api_type_attr_traitsIS3_XT_EE11return_typeEv
_ZNK3ccl2v121sparse_allreduce_attr3getILNS0_24sparse_allreduce_attr_idE8EEERKNS_6detail24ccl_api_type_attr_traitsIS3_XT_EE11return_typeEv
_ZNK3ccl2v13kvs11get_addressEv
_ZNK3ccl2v15event10get_nativeEv
_ZNK3ccl2v15eventeqERKS1_
_ZNK3ccl2v15eventneERKS1_
_ZNK3ccl2v16device10get_nativeEv
_ZNK3ccl2v16device3getILNS0_14device_attr_idE0EEERKNS_6detail24ccl_api_type_attr_traitsIS3_XT_EE11return_typeEv
_ZNK3ccl2v16device3getILNS0_14device_attr_idE1EEERKNS_6detail24ccl_api_type_attr_traitsIS3_XT_EE11return_typeEv
_ZNK3ccl2v16device3getILNS0_14device_attr_idE2EEERKNS_6detail24ccl_api_type_attr_traitsIS3_XT_EE11return_typeEv
_ZNK3ccl2v16deviceeqERKS1_
_ZNK3ccl2v16deviceltERKS1_
_ZNK3ccl2v16deviceneERKS1_
_ZNK3ccl2v16stream10get_nativeEv
_ZNK3ccl2v16stream3getILNS0_14stream_attr_idE0EEERKNS_6detail24ccl_api_type_attr_traitsIS3_XT_EE11return_typeEv
_ZNK3ccl2v16stream3getILNS0_14stream_attr_idE1EEERKNS_6detail24ccl_api_type_attr_traitsIS3_XT_EE11return_typeEv
_ZNK3ccl2v16stream3getILNS0_14stream_attr_idE2EEERKNS_6detail24ccl_api_type_attr_traitsIS3_XT_EE11return_typeEv
_ZNK3ccl2v16stream3getILNS0_14stream_attr_idE3EEERKNS_6detail24ccl_api_type_attr_traitsIS3_XT_EE11return_typeEv
_ZNK3ccl2v16stream3getILNS0_14stream_attr_idE4EEERKNS_6detail24ccl_api_type_attr_traitsIS3_XT_EE11return_typeEv
_ZNK3ccl2v16stream3getILNS0_14stream_attr_idE5EEERKNS_6detail24ccl_api_type_attr_traitsIS3_XT_EE11return_typeEv
_ZNK3ccl2v16stream3getILNS0_14stream_attr_idE6EEERKNS_6detail24ccl_api_type_attr_traitsIS3_XT_EE11return_typeEv
_ZNK3ccl2v16stream3getILNS0_14stream_attr_idE7EEERKNS_6detail24ccl_api_type_attr_traitsIS3_XT_EE11return_typeEv
_ZNK3ccl2v16stream3getILNS0_14stream_attr_idE8EEERKNS_6detail24ccl_api_type_attr_traitsIS3_XT_EE11return_typeEv
_ZNK3ccl2v17context10get_nativeEv
_ZNK3ccl2v17context3getILNS0_15context_attr_idE0EEERKNS_6detail24ccl_api_type_attr_traitsIS3_XT_EE11return_typeEv
_ZNK3ccl2v17context3getILNS0_15context_attr_idE1EEERKNS_6detail24ccl_api_type_attr_traitsIS3_XT_EE11return_typeEv
_ZNK3ccl2v17context3getILNS0_15context_attr_idE2EEERKNS_6detail24ccl_api_type_attr_traitsIS3_XT_EE11return_typeEv
_ZNK3ccl2v17contexteqERKS1_
_ZNK3ccl2v17contextltERKS1_
_ZNK3ccl2v17contextneERKS1_
_ZNK3ccl2v18kvs_attr3getILNS0_11kvs_attr_idE0EEERKNS_6detail24ccl_api_type_attr_traitsIS3_XT_EE4typeEv
_ZNK3ccl2v18kvs_attr8is_validILNS0_11kvs_attr_idE0EEEbv
_ZNK3ccl2v19comm_attr3getILNS0_12comm_attr_idE0EEERKNS_6detail24ccl_api_type_attr_traitsIS3_XT_EE4typeEv
_ZNK3ccl2v19comm_attr8is_validILNS0_12comm_attr_idE0EEEbv
_ZNK3ccl2v19init_attr3getILNS0_12init_attr_idE0EEERKNS_6detail24ccl_api_type_attr_traitsIS3_XT_EE11return_typeEv
_ZNK3ccl6detail11environment13create_deviceIRKSt10shared_ptrIN6native10ccl_deviceEEvEENS_2v16deviceEOT_
_ZNK3ccl6detail11environment13create_deviceIRSt10shared_ptrIN6native10ccl_deviceEEvEENS_2v16deviceEOT_
_ZNK3ccl6detail11environment13create_deviceISt10shared_ptrIN6native10ccl_deviceEEvEENS_2v16deviceEOT_
_ZNK3ccl6detail11environment14create_contextIRKSt10shared_ptrIN6native11ccl_contextEEvEENS_2v17contextEOT_
_ZNK3ccl6detail11environment14create_contextIRSt10shared_ptrIN6native11ccl_contextEEvEENS_2v17contextEOT_
_ZNK3ccl6detail11environment14create_contextISt10shared_ptrIN6native11ccl_contextEEvEENS_2v17contextEOT_
_ZNK3ccl6detail11environment20create_communicatorsINS_2v16deviceENS3_7contextEEESt6vectorINS3_12communicatorESaIS7_EEiRKS6_ISt4pairIiT_ESaISC_EERKT0_St10shared_ptrINS3_13kvs_interfaceEERKNS3_9comm_attrE
_ZNK3ccl6detail11environment20create_communicatorsINS_2v16deviceENS3_7contextEEESt6vectorINS3_12communicatorESaIS7_EEiRKS6_IT_SaISA_EERKT0_St10shared_ptrINS3_13kvs_interfaceEERKNS3_9comm_attrE
_ZNK3ccl6detail11environment20create_communicatorsINS_2v16deviceENS3_7contextEEESt6vectorINS3_12communicatorESaIS7_EEiRKSt3mapIiT_St4lessIiESaISt4pairIKiSB_EEERKT0_St10shared_ptrINS3_13kvs_interfaceEERKNS3_9comm_attrE
_ZNK3ccl6detail11environment20create_communicatorsISt10shared_ptrIN6native10ccl_deviceEES3_INS4_11ccl_contextEEEESt6vectorINS_2v112communicatorESaISB_EEiRKS9_ISt4pairIiT_ESaISG_EERKT0_S3_INSA_13kvs_interfaceEERKNSA_9comm_attrE
_ZNK3ccl6detail11environment20create_communicatorsISt10shared_ptrIN6native10ccl_deviceEES3_INS4_11ccl_contextEEEESt6vectorINS_2v112communicatorESaISB_EEiRKS9_IT_SaISE_EERKT0_S3_INSA_13kvs_interfaceEERKNSA_9comm_attrE
_ZNK3ccl6detail11environment20create_communicatorsISt10shared_ptrIN6native10ccl_deviceEES3_INS4_11ccl_contextEEEESt6vectorINS_2v112communicatorESaISB_EEiRKSt3mapIiT_St4lessIiESaISt4pairIKiSF_EEERKT0_S3_INSA_13kvs_interfaceEERKNSA_9comm_attrE
_ZNK3ccl6detail11environment20create_communicatorsISt5tupleIJjjjEESt10shared_ptrIN6native11ccl_contextEEEESt6vectorINS_2v112communicatorESaISB_EEiRKS9_ISt4pairIiT_ESaISG_EERKT0_S5_INSA_13kvs_interfaceEERKNSA_9comm_attrE
_ZNK3ccl6detail11environment20create_communicatorsISt5tupleIJjjjEESt10shared_ptrIN6native11ccl_contextEEEESt6vectorINS_2v112communicatorESaISB_EEiRKS9_IT_SaISE_EERKT0_S5_INSA_13kvs_interfaceEERKNSA_9comm_attrE
_ZNK3ccl6detail11environment20create_communicatorsISt5tupleIJjjjEESt10shared_ptrIN6native11ccl_contextEEEESt6vectorINS_2v112communicatorESaISB_EEiRKSt3mapIiT_St4lessIiESaISt4pairIKiSF_EEERKT0_S5_INSA_13kvs_interfaceEERKNSA_9comm_attrE
_ZNKSt17_Rb_tree_iteratorISt4pairIKmS0_I19ccl_coll_bcast_algo25ccl_selection_border_typeEEEptEv
_ZNKSt17_Rb_tree_iteratorISt4pairIKmS0_I20ccl_coll_reduce_algo25ccl_selection_border_typeEEEptEv
_ZNKSt17_Rb_tree_iteratorISt4pairIKmS0_I21ccl_coll_barrier_algo25ccl_selection_border_typeEEEptEv
_ZNKSt17_Rb_tree_iteratorISt4pairIKmS0_I22ccl_coll_alltoall_algo25ccl_selection_border_typeEEEptEv
_ZNKSt17_Rb_tree_iteratorISt4pairIKmS0_I23ccl_coll_allreduce_algo25ccl_selection_border_typeEEEptEv
_ZNKSt17_Rb_tree_iteratorISt4pairIKmS0_I23ccl_coll_alltoallv_algo25ccl_selection_border_typeEEEptEv
_ZNKSt17_Rb_tree_iteratorISt4pairIKmS0_I24ccl_coll_allgatherv_algo25ccl_selection_border_typeEEEptEv
_ZNKSt17_Rb_tree_iteratorISt4pairIKmS0_I28ccl_coll_reduce_scatter_algo25ccl_selection_border_typeEEEptEv
_ZNKSt17_Rb_tree_iteratorISt4pairIKmS0_I30ccl_coll_sparse_allreduce_algo25ccl_selection_border_typeEEEptEv
_ZNKSt8_Rb_treeImSt4pairIKmS0_I19ccl_coll_bcast_algo25ccl_selection_border_typeEESt10_Select1stIS5_ESt4lessImESaIS5_EE4findERS1_
_ZNKSt8_Rb_treeImSt4pairIKmS0_I20ccl_coll_reduce_algo25ccl_selection_border_typeEESt10_Select1stIS5_ESt4lessImESaIS5_EE4findERS1_
_ZNKSt8_Rb_treeImSt4pairIKmS0_I21ccl_coll_barrier_algo25ccl_selection_border_typeEESt10_Select1stIS5_ESt4lessImESaIS5_EE4findERS1_
_ZNKSt8_Rb_treeImSt4pairIKmS0_I22ccl_coll_alltoall_algo25ccl_selection_border_typeEESt10_Select1stIS5_ESt4lessImESaIS5_EE4findERS1_
_ZNKSt8_Rb_treeImSt4pairIKmS0_I23ccl_coll_allreduce_algo25ccl_selection_border_typeEESt10_Select1stIS5_ESt4lessImESaIS5_EE4findERS1_
_ZNKSt8_Rb_treeImSt4pairIKmS0_I23ccl_coll_alltoallv_algo25ccl_selection_border_typeEESt10_Select1stIS5_ESt4lessImESaIS5_EE4findERS1_
_ZNKSt8_Rb_treeImSt4pairIKmS0_I24ccl_coll_allgatherv_algo25ccl_selection_border_typeEESt10_Select1stIS5_ESt4lessImESaIS5_EE4findERS1_
_ZNKSt8_Rb_treeImSt4pairIKmS0_I28ccl_coll_reduce_scatter_algo25ccl_selection_border_typeEESt10_Select1stIS5_ESt4lessImESaIS5_EE4findERS1_
_ZNKSt8_Rb_treeImSt4pairIKmS0_I30ccl_coll_sparse_allreduce_algo25ccl_selection_border_typeEESt10_Select1stIS5_ESt4lessImESaIS5_EE4findERS1_
_ZNSaI25ccl_selection_border_typeED1Ev
_ZNSaI8ccl_commED1Ev
_ZNSaI9ccl_schedED1Ev
_ZNSaIN3ccl2v18bfloat16EED1Ev
_ZNSaINSt8__detail10_Hash_nodeISt4pairIK13ccl_sched_keyP16ccl_master_schedELb1EEEED1Ev
_ZNSaINSt8__detail10_Hash_nodeISt4pairIKm13ccl_sched_binELb0EEEED1Ev
_ZNSaIP9ccl_schedED1Ev
_ZNSaIPKSt3mapImSt4pairI19ccl_coll_bcast_algo25ccl_selection_border_typeESt4lessImESaIS0_IKmS3_EEEED1Ev
_ZNSaIPKSt3mapImSt4pairI20ccl_coll_reduce_algo25ccl_selection_border_typeESt4lessImESaIS0_IKmS3_EEEED1Ev
_ZNSaIPKSt3mapImSt4pairI21ccl_coll_barrier_algo25ccl_selection_border_typeESt4lessImESaIS0_IKmS3_EEEED1Ev
_ZNSaIPKSt3mapImSt4pairI22ccl_coll_alltoall_algo25ccl_selection_border_typeESt4lessImESaIS0_IKmS3_EEEED1Ev
_ZNSaIPKSt3mapImSt4pairI23ccl_coll_allreduce_algo25ccl_selection_border_typeESt4lessImESaIS0_IKmS3_EEEED1Ev
_ZNSaIPKSt3mapImSt4pairI23ccl_coll_alltoallv_algo25ccl_selection_border_typeESt4lessImESaIS0_IKmS3_EEEED1Ev
_ZNSaIPKSt3mapImSt4pairI24ccl_coll_allgatherv_algo25ccl_selection_border_typeESt4lessImESaIS0_IKmS3_EEEED1Ev
_ZNSaIPKSt3mapImSt4pairI28ccl_coll_reduce_scatter_algo25ccl_selection_border_typeESt4lessImESaIS0_IKmS3_EEEED1Ev
_ZNSaIPKSt3mapImSt4pairI30ccl_coll_sparse_allreduce_algo25ccl_selection_border_typeESt4lessImESaIS0_IKmS3_EEEED1Ev
_ZNSaIPP16ccl_master_schedED1Ev
_ZNSaISt13_Rb_tree_nodeI25ccl_selection_border_typeEED1Ev
_ZNSaISt13_Rb_tree_nodeISt4pairIK14ccl_yield_typeNSt7__cxx1112basic_stringIcSt11char_traitsIcESaIcEEEEEED1Ev
_ZNSaISt13_Rb_tree_nodeISt4pairIK17ccl_atl_transportNSt7__cxx1112basic_stringIcSt11char_traitsIcESaIcEEEEEED1Ev
_ZNSaISt13_Rb_tree_nodeISt4pairIK17ccl_priority_modeNSt7__cxx1112basic_stringIcSt11char_traitsIcESaIcEEEEEED1Ev
_ZNSaISt13_Rb_tree_nodeISt4pairIK18ccl_cache_key_typeNSt7__cxx1112basic_stringIcSt11char_traitsIcESaIcEEEEEED1Ev
_ZNSaISt13_Rb_tree_nodeISt4pairIK19ccl_coll_bcast_algoNSt7__cxx1112basic_stringIcSt11char_traitsIcESaIcEEEEEED1Ev
_ZNSaISt13_Rb_tree_nodeISt4pairIK20ccl_coll_reduce_algoNSt7__cxx1112basic_stringIcSt11char_traitsIcESaIcEEEEEED1Ev
_ZNSaISt13_Rb_tree_nodeISt4pairIK21ccl_coll_barrier_algoNSt7__cxx1112basic_stringIcSt11char_traitsIcESaIcEEEEEED1Ev
_ZNSaISt13_Rb_tree_nodeISt4pairIK22ccl_coll_alltoall_algoNSt7__cxx1112basic_stringIcSt11char_traitsIcESaIcEEEEEED1Ev
_ZNSaISt13_Rb_tree_nodeISt4pairIK23ccl_coll_allreduce_algoNSt7__cxx1112basic_stringIcSt11char_traitsIcESaIcEEEEEED1Ev
_ZNSaISt13_Rb_tree_nodeISt4pairIK23ccl_coll_alltoallv_algoNSt7__cxx1112basic_stringIcSt11char_traitsIcESaIcEEEEEED1Ev
_ZNSaISt13_Rb_tree_nodeISt4pairIK24ccl_coll_allgatherv_algoNSt7__cxx1112basic_stringIcSt11char_traitsIcESaIcEEEEEED1Ev
_ZNSaISt13_Rb_tree_nodeISt4pairIK28ccl_coll_reduce_scatter_algoNSt7__cxx1112basic_stringIcSt11char_traitsIcESaIcEEEEEED1Ev
_ZNSaISt13_Rb_tree_nodeISt4pairIK30ccl_coll_sparse_allreduce_algoNSt7__cxx1112basic_stringIcSt11char_traitsIcESaIcEEEEEED1Ev
_ZNSaISt19_Sp_counted_deleterIP10ccl_streamSt14default_deleteIS0_ESaIvELN9__gnu_cxx12_Lock_policyE2EEED1Ev
_ZNSaISt23_Sp_counted_ptr_inplaceI8ccl_commSaIS0_ELN9__gnu_cxx12_Lock_policyE2EEED1Ev
_ZNSaISt23_Sp_counted_ptr_inplaceI9ccl_schedSaIS0_ELN9__gnu_cxx12_Lock_policyE2EEED1Ev
_ZNSaISt4pairIK13ccl_sched_keyP16ccl_master_schedEED1Ev
_ZNSaISt4pairIK14ccl_yield_typeNSt7__cxx1112basic_stringIcSt11char_traitsIcESaIcEEEEED1Ev
_ZNSaISt4pairIK17ccl_atl_transportNSt7__cxx1112basic_stringIcSt11char_traitsIcESaIcEEEEED1Ev
_ZNSaISt4pairIK17ccl_priority_modeNSt7__cxx1112basic_stringIcSt11char_traitsIcESaIcEEEEED1Ev
_ZNSaISt4pairIK18ccl_cache_key_typeNSt7__cxx1112basic_stringIcSt11char_traitsIcESaIcEEEEED1Ev
_ZNSaISt4pairIK19ccl_coll_bcast_algoNSt7__cxx1112basic_stringIcSt11char_traitsIcESaIcEEEEED1Ev
_ZNSaISt4pairIK20ccl_coll_reduce_algoNSt7__cxx1112basic_stringIcSt11char_traitsIcESaIcEEEEED1Ev
_ZNSaISt4pairIK21ccl_coll_barrier_algoNSt7__cxx1112basic_stringIcSt11char_traitsIcESaIcEEEEED1Ev
_ZNSaISt4pairIK22ccl_coll_alltoall_algoNSt7__cxx1112basic_stringIcSt11char_traitsIcESaIcEEEEED1Ev
_ZNSaISt4pairIK23ccl_coll_allreduce_algoNSt7__cxx1112basic_stringIcSt11char_traitsIcESaIcEEEEED1Ev
_ZNSaISt4pairIK23ccl_coll_alltoallv_algoNSt7__cxx1112basic_stringIcSt11char_traitsIcESaIcEEEEED1Ev
_ZNSaISt4pairIK24ccl_coll_allgatherv_algoNSt7__cxx1112basic_stringIcSt11char_traitsIcESaIcEEEEED1Ev
_ZNSaISt4pairIK28ccl_coll_reduce_scatter_algoNSt7__cxx1112basic_stringIcSt11char_traitsIcESaIcEEEEED1Ev
_ZNSaISt4pairIK30ccl_coll_sparse_allreduce_algoNSt7__cxx1112basic_stringIcSt11char_traitsIcESaIcEEEEED1Ev
_ZNSaISt4pairIKm13ccl_sched_binEED1Ev
_ZNSaISt4pairIKN3ccl2v18datatypeES_I12ccl_datatypeNSt7__cxx1112basic_stringIcSt11char_traitsIcESaIcEEEEEED1Ev
_ZNSaISt4pairIKNSt7__cxx1112basic_stringIcSt11char_traitsIcESaIcEEEN19ccl_comm_id_storage7comm_idEEED1Ev
_ZNSaISt4pairIKNSt7__cxx1112basic_stringIcSt11char_traitsIcESaIcEEEP16ccl_master_schedEED1Ev
_ZNSaISt4pairIKNSt7__cxx1112basic_stringIcSt11char_traitsIcESaIcEEESt10shared_ptrI8ccl_commEEED1Ev
_ZNSt10_HashtableI13ccl_sched_keySt4pairIKS0_P16ccl_master_schedESaIS5_ENSt8__detail10_Select1stESt8equal_toIS0_E20ccl_sched_key_hasherNS7_18_Mod_range_hashingENS7_20_Default_ranged_hashENS7_20_Prime_rehash_policyENS7_17_Hashtable_traitsILb1ELb0ELb1EEEED1Ev
_ZNSt10_HashtableImSt4pairIKm13ccl_sched_binESaIS3_ENSt8__detail10_Select1stESt8equal_toImESt4hashImENS5_18_Mod_range_hashingENS5_20_Default_ranged_hashENS5_20_Prime_rehash_policyENS5_17_Hashtable_traitsILb0ELb0ELb1EEEE10_M_emplaceIJRKSt21piecewise_construct_tSt5tupleIJRmEESL_IJOP15ccl_sched_queueSM_SM_RP9ccl_schedEEEEES0_INS5_14_Node_iteratorIS3_Lb0ELb0EEEbESt17integral_constantIbLb1EEDpOT_
_ZNSt10_HashtableImSt4pairIKm13ccl_sched_binESaIS3_ENSt8__detail10_Select1stESt8equal_toImESt4hashImENS5_18_Mod_range_hashingENS5_20_Default_ranged_hashENS5_20_Prime_rehash_policyENS5_17_Hashtable_traitsILb0ELb0ELb1EEEED1Ev
_ZNSt10lock_guardI12ccl_spinlockED1Ev
_ZNSt10shared_ptrI10ccl_streamED1Ev
_ZNSt10shared_ptrI15ccl_device_implED1Ev
_ZNSt10shared_ptrI16ccl_context_implED1Ev
_ZNSt10shared_ptrI8ccl_commED1Ev
_ZNSt10shared_ptrI9ccl_schedED1Ev
_ZNSt10shared_ptrIN3ccl14init_attr_implEED1Ev
_ZNSt10shared_ptrIN3ccl17ccl_kvs_attr_implEED1Ev
_ZNSt10shared_ptrIN3ccl18ccl_comm_attr_implEED1Ev
_ZNSt10shared_ptrIN3ccl22ccl_datatype_attr_implEED1Ev
_ZNSt10shared_ptrIN3ccl22ccl_reduce_attr_impl_tEED1Ev
_ZNSt10shared_ptrIN3ccl22communicator_interfaceEED1Ev
_ZNSt10shared_ptrIN3ccl23ccl_barrier_attr_impl_tEED1Ev
_ZNSt10shared_ptrIN3ccl24ccl_alltoall_attr_impl_tEED1Ev
_ZNSt10shared_ptrIN3ccl24ccl_comm_split_attr_implEED1Ev
_ZNSt10shared_ptrIN3ccl25ccl_allreduce_attr_impl_tEED1Ev
_ZNSt10shared_ptrIN3ccl25ccl_alltoallv_attr_impl_tEED1Ev
_ZNSt10shared_ptrIN3ccl25ccl_broadcast_attr_impl_tEED1Ev
_ZNSt10shared_ptrIN3ccl26ccl_allgatherv_attr_impl_tEED1Ev
_ZNSt10shared_ptrIN3ccl2v113kvs_interfaceEED1Ev
_ZNSt10shared_ptrIN3ccl30ccl_reduce_scatter_attr_impl_tEED1Ev
_ZNSt10shared_ptrIN3ccl32ccl_sparse_allreduce_attr_impl_tEED1Ev
_ZNSt10shared_ptrIN6native10ccl_deviceEED1Ev
_ZNSt10shared_ptrIN6native11ccl_contextEED1Ev
_ZNSt10shared_ptrIN6native16ccl_device_eventEED1Ev
_ZNSt10unique_ptrI10ccl_streamSt14default_deleteIS0_EED1Ev
_ZNSt10unique_ptrI10ccl_workerSt14default_deleteIS0_EED1Ev
_ZNSt10unique_ptrI11ccl_atl_tagSt14default_deleteIS0_EED1Ev
_ZNSt10unique_ptrI12ccl_executorSt14default_deleteIS0_EED1Ev
_ZNSt10unique_ptrI15ccl_extra_schedSt14default_deleteIS0_EED1Ev
_ZNSt10unique_ptrI15ccl_sched_cacheSt14default_deleteIS0_EE5resetEPS0_
_ZNSt10unique_ptrI15ccl_sched_cacheSt14default_deleteIS0_EED1Ev
_ZNSt10unique_ptrI15ccl_sched_queueSt14default_deleteIS0_EED1Ev
_ZNSt10unique_ptrI16ccl_parallelizerSt14default_deleteIS0_EED1Ev
_ZNSt10unique_ptrI18ccl_fusion_managerSt14default_deleteIS0_EED1Ev
_ZNSt10unique_ptrI19ccl_comm_id_storageSt14default_deleteIS0_EED1Ev
_ZNSt10unique_ptrI20ccl_datatype_storageSt14default_deleteIS0_EED1Ev
_ZNSt10unique_ptrI24ccl_allreduce_2d_builderSt14default_deleteIS0_EED1Ev
_ZNSt10unique_ptrI26ccl_unordered_coll_managerSt14default_deleteIS0_EED1Ev
_ZNSt10unique_ptrI30ccl_algorithm_selector_wrapperIJL13ccl_coll_type0ELS1_1ELS1_2ELS1_3ELS1_4ELS1_5ELS1_6ELS1_7ELS1_8EEESt14default_deleteIS2_EE5resetEPS2_
_ZNSt10unique_ptrI30ccl_algorithm_selector_wrapperIJL13ccl_coll_type0ELS1_1ELS1_2ELS1_3ELS1_4ELS1_5ELS1_6ELS1_7ELS1_8EEESt14default_deleteIS2_EED1Ev
_ZNSt10unique_ptrI8ccl_commSt14default_deleteIS0_EED1Ev
_ZNSt10unique_ptrI9ccl_eventSt14default_deleteIS0_EED1Ev
_ZNSt10unique_ptrIN3ccl10event_implESt14default_deleteIS1_EED1Ev
_ZNSt10unique_ptrIN3ccl13group_contextESt14default_deleteIS1_EED1Ev
_ZNSt10unique_ptrIN3ccl8kvs_implESt14default_deleteIS1_EED1Ev
_ZNSt11_Deque_baseIP16ccl_master_schedSaIS1_EE11_Deque_implD1Ev
_ZNSt11_Deque_baseIP16ccl_master_schedSaIS1_EE16_M_destroy_nodesEPPS1_S5_
_ZNSt11_Deque_baseIP16ccl_master_schedSaIS1_EE17_M_deallocate_mapEPPS1_m
_ZNSt11_Deque_baseIP16ccl_master_schedSaIS1_EE18_M_deallocate_nodeEPS1_
_ZNSt11_Deque_baseIP16ccl_master_schedSaIS1_EED1Ev
_ZNSt11_Tuple_implILm1EJ22ccl_algorithm_selectorIL13ccl_coll_type1EES0_ILS1_2EES0_ILS1_3EES0_ILS1_4EES0_ILS1_5EES0_ILS1_6EES0_ILS1_7EES0_ILS1_8EEEED1Ev
_ZNSt11_Tuple_implILm2EJ22ccl_algorithm_selectorIL13ccl_coll_type2EES0_ILS1_3EES0_ILS1_4EES0_ILS1_5EES0_ILS1_6EES0_ILS1_7EES0_ILS1_8EEEED1Ev
_ZNSt11_Tuple_implILm3EJ22ccl_algorithm_selectorIL13ccl_coll_type3EES0_ILS1_4EES0_ILS1_5EES0_ILS1_6EES0_ILS1_7EES0_ILS1_8EEEED1Ev
_ZNSt11_Tuple_implILm4EJ22ccl_algorithm_selectorIL13ccl_coll_type4EES0_ILS1_5EES0_ILS1_6EES0_ILS1_7EES0_ILS1_8EEEED1Ev
_ZNSt11_Tuple_implILm5EJ22ccl_algorithm_selectorIL13ccl_coll_type5EES0_ILS1_6EES0_ILS1_7EES0_ILS1_8EEEED1Ev
_ZNSt11_Tuple_implILm6EJ22ccl_algorithm_selectorIL13ccl_coll_type6EES0_ILS1_7EES0_ILS1_8EEEED1Ev
_ZNSt11_Tuple_implILm7EJ22ccl_algorithm_selectorIL13ccl_coll_type7EES0_ILS1_8EEEED1Ev
_ZNSt11_Tuple_implILm8EJ22ccl_algorithm_selectorIL13ccl_coll_type8EEEED1Ev
_ZNSt11unique_lockI12ccl_spinlockED1Ev
_ZNSt12_Destroy_auxILb0EE9__destroyIPN3ccl2v112communicatorEEEvT_S6_
_ZNSt12_Destroy_auxILb0EE9__destroyIPSt10shared_ptrI9ccl_schedEEEvT_S6_
_ZNSt12_Destroy_auxILb0EE9__destroyIPSt10unique_ptrI10ccl_workerSt14default_deleteIS3_EEEEvT_S8_
_ZNSt12__shared_ptrI10ccl_streamLN9__gnu_cxx12_Lock_policyE2EE31_M_enable_shared_from_this_withIS0_S0_EENSt9enable_ifIXntsr3std12__shared_ptrIS0_LS2_2EE15__has_esft_baseIT0_vEE5valueEvE4typeEPT_
_ZNSt12__shared_ptrI15ccl_device_implLN9__gnu_cxx12_Lock_policyE2EE31_M_enable_shared_from_this_withIS0_S0_EENSt9enable_ifIXntsr3std12__shared_ptrIS0_LS2_2EE15__has_esft_baseIT0_vEE5valueEvE4typeEPT_
_ZNSt12__shared_ptrI16ccl_context_implLN9__gnu_cxx12_Lock_policyE2EE31_M_enable_shared_from_this_withIS0_S0_EENSt9enable_ifIXntsr3std12__shared_ptrIS0_LS2_2EE15__has_esft_baseIT0_vEE5valueEvE4typeEPT_
_ZNSt12__shared_ptrI8ccl_commLN9__gnu_cxx12_Lock_policyE2EE31_M_enable_shared_from_this_withIS0_S0_EENSt9enable_ifIXntsr3std12__shared_ptrIS0_LS2_2EE15__has_esft_baseIT0_vEE5valueEvE4typeEPT_
_ZNSt12__shared_ptrI9ccl_schedLN9__gnu_cxx12_Lock_policyE2EE31_M_enable_shared_from_this_withIS0_S0_EENSt9enable_ifIXntsr3std12__shared_ptrIS0_LS2_2EE15__has_esft_baseIT0_vEE5valueEvE4typeEPT_
_ZNSt12__shared_ptrIN3ccl14init_attr_implELN9__gnu_cxx12_Lock_policyE2EE31_M_enable_shared_from_this_withIS1_S1_EENSt9enable_ifIXntsr3std12__shared_ptrIS1_LS3_2EE15__has_esft_baseIT0_vEE5valueEvE4typeEPT_
_ZNSt12__shared_ptrIN3ccl14init_attr_implELN9__gnu_cxx12_Lock_policyE2EE5resetIS1_EENSt9enable_ifIXsr3std21__sp_is_constructibleIS1_T_EE5valueEvE4typeEPS7_
_ZNSt12__shared_ptrIN3ccl17ccl_kvs_attr_implELN9__gnu_cxx12_Lock_policyE2EE31_M_enable_shared_from_this_withIS1_S1_EENSt9enable_ifIXntsr3std12__shared_ptrIS1_LS3_2EE15__has_esft_baseIT0_vEE5valueEvE4typeEPT_
_ZNSt12__shared_ptrIN3ccl17ccl_kvs_attr_implELN9__gnu_cxx12_Lock_policyE2EE5resetIS1_EENSt9enable_ifIXsr3std21__sp_is_constructibleIS1_T_EE5valueEvE4typeEPS7_
_ZNSt12__shared_ptrIN3ccl17host_communicatorELN9__gnu_cxx12_Lock_policyE2EE31_M_enable_shared_from_this_withIS1_S1_EENSt9enable_ifIXntsr3std12__shared_ptrIS1_LS3_2EE15__has_esft_baseIT0_vEE5valueEvE4typeEPT_
_ZNSt12__shared_ptrIN3ccl18ccl_comm_attr_implELN9__gnu_cxx12_Lock_policyE2EE31_M_enable_shared_from_this_withIS1_S1_EENSt9enable_ifIXntsr3std12__shared_ptrIS1_LS3_2EE15__has_esft_baseIT0_vEE5valueEvE4typeEPT_
_ZNSt12__shared_ptrIN3ccl18ccl_comm_attr_implELN9__gnu_cxx12_Lock_policyE2EE5resetIS1_EENSt9enable_ifIXsr3std21__sp_is_constructibleIS1_T_EE5valueEvE4typeEPS7_
_ZNSt12__shared_ptrIN3ccl22ccl_datatype_attr_implELN9__gnu_cxx12_Lock_policyE2EE31_M_enable_shared_from_this_withIS1_S1_EENSt9enable_ifIXntsr3std12__shared_ptrIS1_LS3_2EE15__has_esft_baseIT0_vEE5valueEvE4typeEPT_
_ZNSt12__shared_ptrIN3ccl22ccl_datatype_attr_implELN9__gnu_cxx12_Lock_policyE2EE5resetIS1_EENSt9enable_ifIXsr3std21__sp_is_constructibleIS1_T_EE5valueEvE4typeEPS7_
_ZNSt12__shared_ptrIN3ccl22ccl_reduce_attr_impl_tELN9__gnu_cxx12_Lock_policyE2EE31_M_enable_shared_from_this_withIS1_S1_EENSt9enable_ifIXntsr3std12__shared_ptrIS1_LS3_2EE15__has_esft_baseIT0_vEE5valueEvE4typeEPT_
_ZNSt12__shared_ptrIN3ccl22ccl_reduce_attr_impl_tELN9__gnu_cxx12_Lock_policyE2EE5resetIS1_EENSt9enable_ifIXsr3std21__sp_is_constructibleIS1_T_EE5valueEvE4typeEPS7_
_ZNSt12__shared_ptrIN3ccl22communicator_interfaceELN9__gnu_cxx12_Lock_policyE2EE31_M_enable_shared_from_this_withINS0_17host_communicatorES6_EENSt9enable_ifIXntsr3std12__shared_ptrIS1_LS3_2EE15__has_esft_baseIT0_vEE5valueEvE4typeEPT_
_ZNSt12__shared_ptrIN3ccl22communicator_interfaceELN9__gnu_cxx12_Lock_policyE2EE31_M_enable_shared_from_this_withIS1_S1_EENSt9enable_ifIXntsr3std12__shared_ptrIS1_LS3_2EE15__has_esft_baseIT0_vEE5valueEvE4typeEPT_
_ZNSt12__shared_ptrIN3ccl23ccl_barrier_attr_impl_tELN9__gnu_cxx12_Lock_policyE2EE31_M_enable_shared_from_this_withIS1_S1_EENSt9enable_ifIXntsr3std12__shared_ptrIS1_LS3_2EE15__has_esft_baseIT0_vEE5valueEvE4typeEPT_
_ZNSt12__shared_ptrIN3ccl23ccl_barrier_attr_impl_tELN9__gnu_cxx12_Lock_policyE2EE5resetIS1_EENSt9enable_ifIXsr3std21__sp_is_constructibleIS1_T_EE5valueEvE4typeEPS7_
_ZNSt12__shared_ptrIN3ccl24ccl_alltoall_attr_impl_tELN9__gnu_cxx12_Lock_policyE2EE31_M_enable_shared_from_this_withIS1_S1_EENSt9enable_ifIXntsr3std12__shared_ptrIS1_LS3_2EE15__has_esft_baseIT0_vEE5valueEvE4typeEPT_
_ZNSt12__shared_ptrIN3ccl24ccl_alltoall_attr_impl_tELN9__gnu_cxx12_Lock_policyE2EE5resetIS1_EENSt9enable_ifIXsr3std21__sp_is_constructibleIS1_T_EE5valueEvE4typeEPS7_
_ZNSt12__shared_ptrIN3ccl24ccl_comm_split_attr_implELN9__gnu_cxx12_Lock_policyE2EE31_M_enable_shared_from_this_withIS1_S1_EENSt9enable_ifIXntsr3std12__shared_ptrIS1_LS3_2EE15__has_esft_baseIT0_vEE5valueEvE4typeEPT_
_ZNSt12__shared_ptrIN3ccl24ccl_comm_split_attr_implELN9__gnu_cxx12_Lock_policyE2EE5resetIS1_EENSt9enable_ifIXsr3std21__sp_is_constructibleIS1_T_EE5valueEvE4typeEPS7_
_ZNSt12__shared_ptrIN3ccl25ccl_allreduce_attr_impl_tELN9__gnu_cxx12_Lock_policyE2EE31_M_enable_shared_from_this_withIS1_S1_EENSt9enable_ifIXntsr3std12__shared_ptrIS1_LS3_2EE15__has_esft_baseIT0_vEE5valueEvE4typeEPT_
_ZNSt12__shared_ptrIN3ccl25ccl_allreduce_attr_impl_tELN9__gnu_cxx12_Lock_policyE2EE5resetIS1_EENSt9enable_ifIXsr3std21__sp_is_constructibleIS1_T_EE5valueEvE4typeEPS7_
_ZNSt12__shared_ptrIN3ccl25ccl_alltoallv_attr_impl_tELN9__gnu_cxx12_Lock_policyE2EE31_M_enable_shared_from_this_withIS1_S1_EENSt9enable_ifIXntsr3std12__shared_ptrIS1_LS3_2EE15__has_esft_baseIT0_vEE5valueEvE4typeEPT_
_ZNSt12__shared_ptrIN3ccl25ccl_alltoallv_attr_impl_tELN9__gnu_cxx12_Lock_policyE2EE5resetIS1_EENSt9enable_ifIXsr3std21__sp_is_constructibleIS1_T_EE5valueEvE4typeEPS7_
_ZNSt12__shared_ptrIN3ccl25ccl_broadcast_attr_impl_tELN9__gnu_cxx12_Lock_policyE2EE31_M_enable_shared_from_this_withIS1_S1_EENSt9enable_ifIXntsr3std12__shared_ptrIS1_LS3_2EE15__has_esft_baseIT0_vEE5valueEvE4typeEPT_
_ZNSt12__shared_ptrIN3ccl25ccl_broadcast_attr_impl_tELN9__gnu_cxx12_Lock_policyE2EE5resetIS1_EENSt9enable_ifIXsr3std21__sp_is_constructibleIS1_T_EE5valueEvE4typeEPS7_
_ZNSt12__shared_ptrIN3ccl26ccl_allgatherv_attr_impl_tELN9__gnu_cxx12_Lock_policyE2EE31_M_enable_shared_from_this_withIS1_S1_EENSt9enable_ifIXntsr3std12__shared_ptrIS1_LS3_2EE15__has_esft_baseIT0_vEE5valueEvE4typeEPT_
_ZNSt12__shared_ptrIN3ccl26ccl_allgatherv_attr_impl_tELN9__gnu_cxx12_Lock_policyE2EE5resetIS1_EENSt9enable_ifIXsr3std21__sp_is_constructibleIS1_T_EE5valueEvE4typeEPS7_
_ZNSt12__shared_ptrIN3ccl2v13kvsELN9__gnu_cxx12_Lock_policyE2EE31_M_enable_shared_from_this_withIS2_S2_EENSt9enable_ifIXntsr3std12__shared_ptrIS2_LS4_2EE15__has_esft_baseIT0_vEE5valueEvE4typeEPT_
_ZNSt12__shared_ptrIN3ccl30ccl_reduce_scatter_attr_impl_tELN9__gnu_cxx12_Lock_policyE2EE31_M_enable_shared_from_this_withIS1_S1_EENSt9enable_ifIXntsr3std12__shared_ptrIS1_LS3_2EE15__has_esft_baseIT0_vEE5valueEvE4typeEPT_
_ZNSt12__shared_ptrIN3ccl30ccl_reduce_scatter_attr_impl_tELN9__gnu_cxx12_Lock_policyE2EE5resetIS1_EENSt9enable_ifIXsr3std21__sp_is_constructibleIS1_T_EE5valueEvE4typeEPS7_
_ZNSt12__shared_ptrIN3ccl32ccl_sparse_allreduce_attr_impl_tELN9__gnu_cxx12_Lock_policyE2EE31_M_enable_shared_from_this_withIS1_S1_EENSt9enable_ifIXntsr3std12__shared_ptrIS1_LS3_2EE15__has_esft_baseIT0_vEE5valueEvE4typeEPT_
_ZNSt12__shared_ptrIN3ccl32ccl_sparse_allreduce_attr_impl_tELN9__gnu_cxx12_Lock_policyE2EE5resetIS1_EENSt9enable_ifIXsr3std21__sp_is_constructibleIS1_T_EE5valueEvE4typeEPS7_
_ZNSt12_Vector_baseI10ccl_bufferSaIS0_EE12_Vector_implD1Ev
_ZNSt12_Vector_baseI10ccl_bufferSaIS0_EE13_M_deallocateEPS0_m
_ZNSt12_Vector_baseI10ccl_bufferSaIS0_EE19_M_get_Tp_allocatorEv
_ZNSt12_Vector_baseI10ccl_bufferSaIS0_EED1Ev
_ZNSt12_Vector_baseIN3ccl2v112communicatorESaIS2_EE12_Vector_implD1Ev
_ZNSt12_Vector_baseIN3ccl2v112communicatorESaIS2_EE13_M_deallocateEPS2_m
_ZNSt12_Vector_baseIN3ccl2v112communicatorESaIS2_EE19_M_get_Tp_allocatorEv
_ZNSt12_Vector_baseIN3ccl2v112communicatorESaIS2_EED1Ev
_ZNSt12_Vector_baseIN3ccl2v15eventESaIS2_EE12_Vector_implD1Ev
_ZNSt12_Vector_baseIN3ccl2v15eventESaIS2_EED1Ev
_ZNSt12_Vector_baseIN3ccl2v18bfloat16ESaIS2_EE12_Vector_implD1Ev
_ZNSt12_Vector_baseIN3ccl2v18bfloat16ESaIS2_EED1Ev
_ZNSt12_Vector_baseIP13ccl_sched_binSaIS1_EE12_Vector_implD1Ev
_ZNSt12_Vector_baseIP13ccl_sched_binSaIS1_EE13_M_deallocateEPS1_m
_ZNSt12_Vector_baseIP13ccl_sched_binSaIS1_EE19_M_get_Tp_allocatorEv
_ZNSt12_Vector_baseIP13ccl_sched_binSaIS1_EED1Ev
_ZNSt12_Vector_baseIP16ccl_master_schedSaIS1_EE12_Vector_implD1Ev
_ZNSt12_Vector_baseIP16ccl_master_schedSaIS1_EE13_M_deallocateEPS1_m
_ZNSt12_Vector_baseIP16ccl_master_schedSaIS1_EE19_M_get_Tp_allocatorEv
_ZNSt12_Vector_baseIP16ccl_master_schedSaIS1_EED1Ev
_ZNSt12_Vector_baseIP29ccl_parallelizer_prologue_ctxSaIS1_EE12_Vector_implD1Ev
_ZNSt12_Vector_baseIP29ccl_parallelizer_prologue_ctxSaIS1_EE13_M_deallocateEPS1_m
_ZNSt12_Vector_baseIP29ccl_parallelizer_prologue_ctxSaIS1_EE19_M_get_Tp_allocatorEv
_ZNSt12_Vector_baseIP29ccl_parallelizer_prologue_ctxSaIS1_EED1Ev
_ZNSt12_Vector_baseIP9ccl_schedSaIS1_EE12_Vector_implD1Ev
_ZNSt12_Vector_baseIP9ccl_schedSaIS1_EE13_M_deallocateEPS1_m
_ZNSt12_Vector_baseIP9ccl_schedSaIS1_EE19_M_get_Tp_allocatorEv
_ZNSt12_Vector_baseIP9ccl_schedSaIS1_EED1Ev
_ZNSt12_Vector_baseIPKSt3mapImSt4pairI19ccl_coll_bcast_algo25ccl_selection_border_typeESt4lessImESaIS1_IKmS4_EEESaISC_EE12_Vector_implD1Ev
_ZNSt12_Vector_baseIPKSt3mapImSt4pairI19ccl_coll_bcast_algo25ccl_selection_border_typeESt4lessImESaIS1_IKmS4_EEESaISC_EED1Ev
_ZNSt12_Vector_baseIPKSt3mapImSt4pairI20ccl_coll_reduce_algo25ccl_selection_border_typeESt4lessImESaIS1_IKmS4_EEESaISC_EE12_Vector_implD1Ev
_ZNSt12_Vector_baseIPKSt3mapImSt4pairI20ccl_coll_reduce_algo25ccl_selection_border_typeESt4lessImESaIS1_IKmS4_EEESaISC_EED1Ev
_ZNSt12_Vector_baseIPKSt3mapImSt4pairI21ccl_coll_barrier_algo25ccl_selection_border_typeESt4lessImESaIS1_IKmS4_EEESaISC_EE12_Vector_implD1Ev
_ZNSt12_Vector_baseIPKSt3mapImSt4pairI21ccl_coll_barrier_algo25ccl_selection_border_typeESt4lessImESaIS1_IKmS4_EEESaISC_EED1Ev
_ZNSt12_Vector_baseIPKSt3mapImSt4pairI22ccl_coll_alltoall_algo25ccl_selection_border_typeESt4lessImESaIS1_IKmS4_EEESaISC_EE12_Vector_implD1Ev
_ZNSt12_Vector_baseIPKSt3mapImSt4pairI22ccl_coll_alltoall_algo25ccl_selection_border_typeESt4lessImESaIS1_IKmS4_EEESaISC_EED1Ev
_ZNSt12_Vector_baseIPKSt3mapImSt4pairI23ccl_coll_allreduce_algo25ccl_selection_border_typeESt4lessImESaIS1_IKmS4_EEESaISC_EE12_Vector_implD1Ev
_ZNSt12_Vector_baseIPKSt3mapImSt4pairI23ccl_coll_allreduce_algo25ccl_selection_border_typeESt4lessImESaIS1_IKmS4_EEESaISC_EED1Ev
_ZNSt12_Vector_baseIPKSt3mapImSt4pairI23ccl_coll_alltoallv_algo25ccl_selection_border_typeESt4lessImESaIS1_IKmS4_EEESaISC_EE12_Vector_implD1Ev
_ZNSt12_Vector_baseIPKSt3mapImSt4pairI23ccl_coll_alltoallv_algo25ccl_selection_border_typeESt4lessImESaIS1_IKmS4_EEESaISC_EED1Ev
_ZNSt12_Vector_baseIPKSt3mapImSt4pairI24ccl_coll_allgatherv_algo25ccl_selection_border_typeESt4lessImESaIS1_IKmS4_EEESaISC_EE12_Vector_implD1Ev
_ZNSt12_Vector_baseIPKSt3mapImSt4pairI24ccl_coll_allgatherv_algo25ccl_selection_border_typeESt4lessImESaIS1_IKmS4_EEESaISC_EED1Ev
_ZNSt12_Vector_baseIPKSt3mapImSt4pairI28ccl_coll_reduce_scatter_algo25ccl_selection_border_typeESt4lessImESaIS1_IKmS4_EEESaISC_EE12_Vector_implD1Ev
_ZNSt12_Vector_baseIPKSt3mapImSt4pairI28ccl_coll_reduce_scatter_algo25ccl_selection_border_typeESt4lessImESaIS1_IKmS4_EEESaISC_EED1Ev
_ZNSt12_Vector_baseIPKSt3mapImSt4pairI30ccl_coll_sparse_allreduce_algo25ccl_selection_border_typeESt4lessImESaIS1_IKmS4_EEESaISC_EE12_Vector_implD1Ev
_ZNSt12_Vector_baseIPKSt3mapImSt4pairI30ccl_coll_sparse_allreduce_algo25ccl_selection_border_typeESt4lessImESaIS1_IKmS4_EEESaISC_EED1Ev
_ZNSt12_Vector_baseISt10shared_ptrI9ccl_schedESaIS2_EE12_Vector_implD1Ev
_ZNSt12_Vector_baseISt10shared_ptrI9ccl_schedESaIS2_EE13_M_deallocateEPS2_m
_ZNSt12_Vector_baseISt10shared_ptrI9ccl_schedESaIS2_EE19_M_get_Tp_allocatorEv
_ZNSt12_Vector_baseISt10shared_ptrI9ccl_schedESaIS2_EED1Ev
_ZNSt12_Vector_baseISt10unique_ptrI10ccl_workerSt14default_deleteIS1_EESaIS4_EE12_Vector_implD1Ev
_ZNSt12_Vector_baseISt10unique_ptrI10ccl_workerSt14default_deleteIS1_EESaIS4_EE13_M_deallocateEPS4_m
_ZNSt12_Vector_baseISt10unique_ptrI10ccl_workerSt14default_deleteIS1_EESaIS4_EE19_M_get_Tp_allocatorEv
_ZNSt12_Vector_baseISt10unique_ptrI10ccl_workerSt14default_deleteIS1_EESaIS4_EED1Ev
_ZNSt13unordered_mapI13ccl_sched_keyP16ccl_master_sched20ccl_sched_key_hasherSt8equal_toIS0_ESaISt4pairIKS0_S2_EEED1Ev
_ZNSt13unordered_mapIm13ccl_sched_binSt4hashImESt8equal_toImESaISt4pairIKmS0_EEED1Ev
_ZNSt13unordered_mapIN3ccl2v18datatypeESt4pairI12ccl_datatypeNSt7__cxx1112basic_stringIcSt11char_traitsIcESaIcEEEE19ccl_datatype_hasherSt8equal_toIS2_ESaIS3_IKS2_SB_EEED1Ev
_ZNSt13unordered_mapINSt7__cxx1112basic_stringIcSt11char_traitsIcESaIcEEEN19ccl_comm_id_storage7comm_idESt4hashIS5_ESt8equal_toIS5_ESaISt4pairIKS5_S7_EEED1Ev
_ZNSt13unordered_mapINSt7__cxx1112basic_stringIcSt11char_traitsIcESaIcEEESt10shared_ptrI8ccl_commESt4hashIS5_ESt8equal_toIS5_ESaISt4pairIKS5_S8_EEED1Ev
_ZNSt14_Function_base13_Base_managerIZ29ccl_coll_build_double_tree_opP9ccl_sched13ccl_coll_type10ccl_bufferS4_mRK12ccl_datatypeN3ccl2v19reductionERK15ccl_double_treeP8ccl_commEUlS2_E0_E10_M_managerERSt9_Any_dataRKSI_St18_Manager_operation
_ZNSt14_Function_base13_Base_managerIZ29ccl_coll_build_double_tree_opP9ccl_sched13ccl_coll_type10ccl_bufferS4_mRK12ccl_datatypeN3ccl2v19reductionERK15ccl_double_treeP8ccl_commEUlS2_E1_E10_M_managerERSt9_Any_dataRKSI_St18_Manager_operation
_ZNSt14_Function_base13_Base_managerIZ29ccl_coll_build_double_tree_opP9ccl_sched13ccl_coll_type10ccl_bufferS4_mRK12ccl_datatypeN3ccl2v19reductionERK15ccl_double_treeP8ccl_commEUlS2_E2_E10_M_managerERSt9_Any_dataRKSI_St18_Manager_operation
_ZNSt14_Function_base13_Base_managerIZ29ccl_coll_build_double_tree_opP9ccl_sched13ccl_coll_type10ccl_bufferS4_mRK12ccl_datatypeN3ccl2v19reductionERK15ccl_double_treeP8ccl_commEUlS2_E3_E10_M_managerERSt9_Any_dataRKSI_St18_Manager_operation
_ZNSt14_Function_base13_Base_managerIZ29ccl_coll_build_double_tree_opP9ccl_sched13ccl_coll_type10ccl_bufferS4_mRK12ccl_datatypeN3ccl2v19reductionERK15ccl_double_treeP8ccl_commEUlS2_E4_E10_M_managerERSt9_Any_dataRKSI_St18_Manager_operation
_ZNSt14_Function_base13_Base_managerIZ29ccl_coll_build_double_tree_opP9ccl_sched13ccl_coll_type10ccl_bufferS4_mRK12ccl_datatypeN3ccl2v19reductionERK15ccl_double_treeP8ccl_commEUlS2_E5_E10_M_managerERSt9_Any_dataRKSI_St18_Manager_operation
_ZNSt14_Function_base13_Base_managerIZ29ccl_coll_build_double_tree_opP9ccl_sched13ccl_coll_type10ccl_bufferS4_mRK12ccl_datatypeN3ccl2v19reductionERK15ccl_double_treeP8ccl_commEUlS2_E6_E10_M_managerERSt9_Any_dataRKSI_St18_Manager_operation
_ZNSt14_Function_base13_Base_managerIZ29ccl_coll_build_double_tree_opP9ccl_sched13ccl_coll_type10ccl_bufferS4_mRK12ccl_datatypeN3ccl2v19reductionERK15ccl_double_treeP8ccl_commEUlS2_E7_E10_M_managerERSt9_Any_dataRKSI_St18_Manager_operation
_ZNSt14_Function_base13_Base_managerIZ29ccl_coll_build_double_tree_opP9ccl_sched13ccl_coll_type10ccl_bufferS4_mRK12ccl_datatypeN3ccl2v19reductionERK15ccl_double_treeP8ccl_commEUlS2_E8_E10_M_managerERSt9_Any_dataRKSI_St18_Manager_operation
_ZNSt14_Function_base13_Base_managerIZ29ccl_coll_build_double_tree_opP9ccl_sched13ccl_coll_type10ccl_bufferS4_mRK12ccl_datatypeN3ccl2v19reductionERK15ccl_double_treeP8ccl_commEUlS2_E_E10_M_managerERSt9_Any_dataRKSI_St18_Manager_operation
_ZNSt14_Function_base13_Base_managerIZ40ccl_coll_build_scatter_barrier_alltoallvP16ccl_master_schedRSt6vectorIP9ccl_schedSaIS5_EERK14ccl_coll_paramEUlS5_E0_E10_M_managerERSt9_Any_dataRKSE_St18_Manager_operation
_ZNSt14_Function_base13_Base_managerIZ40ccl_coll_build_scatter_barrier_alltoallvP16ccl_master_schedRSt6vectorIP9ccl_schedSaIS5_EERK14ccl_coll_paramEUlS5_E_E10_M_managerERSt9_Any_dataRKSE_St18_Manager_operation
_ZNSt14_Function_base13_Base_managerIZN17_INTERNALebf336ed55ccl_allreduce_2d_add_reduce_scatter_allreduce_allgatherEP9ccl_sched10ccl_bufferS4_mRK12ccl_datatypeN3ccl2v19reductionEP8ccl_commmmEUlS3_E0_E10_M_managerERSt9_Any_dataRKSF_St18_Manager_operation
_ZNSt14_Function_base13_Base_managerIZN17_INTERNALebf336ed55ccl_allreduce_2d_add_reduce_scatter_allreduce_allgatherEP9ccl_sched10ccl_bufferS4_mRK12ccl_datatypeN3ccl2v19reductionEP8ccl_commmmEUlS3_E_E10_M_managerERSt9_Any_dataRKSF_St18_Manager_operation
_ZNSt15__allocated_ptrISaISt10_List_nodeI24ccl_sched_buffer_handlerEEED1Ev
_ZNSt15__allocated_ptrISaISt10_List_nodeIP16ccl_master_schedEEED1Ev
_ZNSt15__allocated_ptrISaISt23_Sp_counted_ptr_inplaceI8ccl_commSaIS1_ELN9__gnu_cxx12_Lock_policyE2EEEED1Ev
_ZNSt15__allocated_ptrISaISt23_Sp_counted_ptr_inplaceI9ccl_schedSaIS1_ELN9__gnu_cxx12_Lock_policyE2EEEED1Ev
_ZNSt15_Deque_iteratorIP16ccl_master_schedRS1_PS1_EpLEl
_ZNSt15_Sp_counted_ptrIP15ccl_device_implLN9__gnu_cxx12_Lock_policyE2EE10_M_destroyEv
_ZNSt15_Sp_counted_ptrIP15ccl_device_implLN9__gnu_cxx12_Lock_policyE2EE10_M_disposeEv
_ZNSt15_Sp_counted_ptrIP15ccl_device_implLN9__gnu_cxx12_Lock_policyE2EE14_M_get_deleterERKSt9type_info
_ZNSt15_Sp_counted_ptrIP15ccl_device_implLN9__gnu_cxx12_Lock_policyE2EED0Ev
_ZNSt15_Sp_counted_ptrIP15ccl_device_implLN9__gnu_cxx12_Lock_policyE2EED1Ev
_ZNSt15_Sp_counted_ptrIP16ccl_context_implLN9__gnu_cxx12_Lock_policyE2EE10_M_destroyEv
_ZNSt15_Sp_counted_ptrIP16ccl_context_implLN9__gnu_cxx12_Lock_policyE2EE10_M_disposeEv
_ZNSt15_Sp_counted_ptrIP16ccl_context_implLN9__gnu_cxx12_Lock_policyE2EE14_M_get_deleterERKSt9type_info
_ZNSt15_Sp_counted_ptrIP16ccl_context_implLN9__gnu_cxx12_Lock_policyE2EED0Ev
_ZNSt15_Sp_counted_ptrIP16ccl_context_implLN9__gnu_cxx12_Lock_policyE2EED1Ev
_ZNSt15_Sp_counted_ptrIP8ccl_commLN9__gnu_cxx12_Lock_policyE2EE10_M_destroyEv
_ZNSt15_Sp_counted_ptrIP8ccl_commLN9__gnu_cxx12_Lock_policyE2EE10_M_disposeEv
_ZNSt15_Sp_counted_ptrIP8ccl_commLN9__gnu_cxx12_Lock_policyE2EE14_M_get_deleterERKSt9type_info
_ZNSt15_Sp_counted_ptrIP8ccl_commLN9__gnu_cxx12_Lock_policyE2EED0Ev
_ZNSt15_Sp_counted_ptrIP8ccl_commLN9__gnu_cxx12_Lock_policyE2EED1Ev
_ZNSt15_Sp_counted_ptrIPN3ccl14init_attr_implELN9__gnu_cxx12_Lock_policyE2EE10_M_destroyEv
_ZNSt15_Sp_counted_ptrIPN3ccl14init_attr_implELN9__gnu_cxx12_Lock_policyE2EE10_M_disposeEv
_ZNSt15_Sp_counted_ptrIPN3ccl14init_attr_implELN9__gnu_cxx12_Lock_policyE2EE14_M_get_deleterERKSt9type_info
_ZNSt15_Sp_counted_ptrIPN3ccl14init_attr_implELN9__gnu_cxx12_Lock_policyE2EED0Ev
_ZNSt15_Sp_counted_ptrIPN3ccl14init_attr_implELN9__gnu_cxx12_Lock_policyE2EED1Ev
_ZNSt15_Sp_counted_ptrIPN3ccl17ccl_kvs_attr_implELN9__gnu_cxx12_Lock_policyE2EE10_M_destroyEv
_ZNSt15_Sp_counted_ptrIPN3ccl17ccl_kvs_attr_implELN9__gnu_cxx12_Lock_policyE2EE10_M_disposeEv
_ZNSt15_Sp_counted_ptrIPN3ccl17ccl_kvs_attr_implELN9__gnu_cxx12_Lock_policyE2EE14_M_get_deleterERKSt9type_info
_ZNSt15_Sp_counted_ptrIPN3ccl17ccl_kvs_attr_implELN9__gnu_cxx12_Lock_policyE2EED0Ev
_ZNSt15_Sp_counted_ptrIPN3ccl17ccl_kvs_attr_implELN9__gnu_cxx12_Lock_policyE2EED1Ev
_ZNSt15_Sp_counted_ptrIPN3ccl17host_communicatorELN9__gnu_cxx12_Lock_policyE2EE10_M_destroyEv
_ZNSt15_Sp_counted_ptrIPN3ccl17host_communicatorELN9__gnu_cxx12_Lock_policyE2EE10_M_disposeEv
_ZNSt15_Sp_counted_ptrIPN3ccl17host_communicatorELN9__gnu_cxx12_Lock_policyE2EE14_M_get_deleterERKSt9type_info
_ZNSt15_Sp_counted_ptrIPN3ccl17host_communicatorELN9__gnu_cxx12_Lock_policyE2EED0Ev
_ZNSt15_Sp_counted_ptrIPN3ccl17host_communicatorELN9__gnu_cxx12_Lock_policyE2EED1Ev
_ZNSt15_Sp_counted_ptrIPN3ccl18ccl_comm_attr_implELN9__gnu_cxx12_Lock_policyE2EE10_M_destroyEv
_ZNSt15_Sp_counted_ptrIPN3ccl18ccl_comm_attr_implELN9__gnu_cxx12_Lock_policyE2EE10_M_disposeEv
_ZNSt15_Sp_counted_ptrIPN3ccl18ccl_comm_attr_implELN9__gnu_cxx12_Lock_policyE2EE14_M_get_deleterERKSt9type_info
_ZNSt15_Sp_counted_ptrIPN3ccl18ccl_comm_attr_implELN9__gnu_cxx12_Lock_policyE2EED0Ev
_ZNSt15_Sp_counted_ptrIPN3ccl18ccl_comm_attr_implELN9__gnu_cxx12_Lock_policyE2EED1Ev
_ZNSt15_Sp_counted_ptrIPN3ccl22ccl_datatype_attr_implELN9__gnu_cxx12_Lock_policyE2EE10_M_destroyEv
_ZNSt15_Sp_counted_ptrIPN3ccl22ccl_datatype_attr_implELN9__gnu_cxx12_Lock_policyE2EE10_M_disposeEv
_ZNSt15_Sp_counted_ptrIPN3ccl22ccl_datatype_attr_implELN9__gnu_cxx12_Lock_policyE2EE14_M_get_deleterERKSt9type_info
_ZNSt15_Sp_counted_ptrIPN3ccl22ccl_datatype_attr_implELN9__gnu_cxx12_Lock_policyE2EED0Ev
_ZNSt15_Sp_counted_ptrIPN3ccl22ccl_datatype_attr_implELN9__gnu_cxx12_Lock_policyE2EED1Ev
_ZNSt15_Sp_counted_ptrIPN3ccl22ccl_reduce_attr_impl_tELN9__gnu_cxx12_Lock_policyE2EE10_M_destroyEv
_ZNSt15_Sp_counted_ptrIPN3ccl22ccl_reduce_attr_impl_tELN9__gnu_cxx12_Lock_policyE2EE10_M_disposeEv
_ZNSt15_Sp_counted_ptrIPN3ccl22ccl_reduce_attr_impl_tELN9__gnu_cxx12_Lock_policyE2EE14_M_get_deleterERKSt9type_info
_ZNSt15_Sp_counted_ptrIPN3ccl22ccl_reduce_attr_impl_tELN9__gnu_cxx12_Lock_policyE2EED0Ev
_ZNSt15_Sp_counted_ptrIPN3ccl22ccl_reduce_attr_impl_tELN9__gnu_cxx12_Lock_policyE2EED1Ev
_ZNSt15_Sp_counted_ptrIPN3ccl23ccl_barrier_attr_impl_tELN9__gnu_cxx12_Lock_policyE2EE10_M_destroyEv
_ZNSt15_Sp_counted_ptrIPN3ccl23ccl_barrier_attr_impl_tELN9__gnu_cxx12_Lock_policyE2EE10_M_disposeEv
_ZNSt15_Sp_counted_ptrIPN3ccl23ccl_barrier_attr_impl_tELN9__gnu_cxx12_Lock_policyE2EE14_M_get_deleterERKSt9type_info
_ZNSt15_Sp_counted_ptrIPN3ccl23ccl_barrier_attr_impl_tELN9__gnu_cxx12_Lock_policyE2EED0Ev
_ZNSt15_Sp_counted_ptrIPN3ccl23ccl_barrier_attr_impl_tELN9__gnu_cxx12_Lock_policyE2EED1Ev
_ZNSt15_Sp_counted_ptrIPN3ccl24ccl_alltoall_attr_impl_tELN9__gnu_cxx12_Lock_policyE2EE10_M_destroyEv
_ZNSt15_Sp_counted_ptrIPN3ccl24ccl_alltoall_attr_impl_tELN9__gnu_cxx12_Lock_policyE2EE10_M_disposeEv
_ZNSt15_Sp_counted_ptrIPN3ccl24ccl_alltoall_attr_impl_tELN9__gnu_cxx12_Lock_policyE2EE14_M_get_deleterERKSt9type_info
_ZNSt15_Sp_counted_ptrIPN3ccl24ccl_alltoall_attr_impl_tELN9__gnu_cxx12_Lock_policyE2EED0Ev
_ZNSt15_Sp_counted_ptrIPN3ccl24ccl_alltoall_attr_impl_tELN9__gnu_cxx12_Lock_policyE2EED1Ev
_ZNSt15_Sp_counted_ptrIPN3ccl24ccl_comm_split_attr_implELN9__gnu_cxx12_Lock_policyE2EE10_M_destroyEv
_ZNSt15_Sp_counted_ptrIPN3ccl24ccl_comm_split_attr_implELN9__gnu_cxx12_Lock_policyE2EE10_M_disposeEv
_ZNSt15_Sp_counted_ptrIPN3ccl24ccl_comm_split_attr_implELN9__gnu_cxx12_Lock_policyE2EE14_M_get_deleterERKSt9type_info
_ZNSt15_Sp_counted_ptrIPN3ccl24ccl_comm_split_attr_implELN9__gnu_cxx12_Lock_policyE2EED0Ev
_ZNSt15_Sp_counted_ptrIPN3ccl24ccl_comm_split_attr_implELN9__gnu_cxx12_Lock_policyE2EED1Ev
_ZNSt15_Sp_counted_ptrIPN3ccl25ccl_allreduce_attr_impl_tELN9__gnu_cxx12_Lock_policyE2EE10_M_destroyEv
_ZNSt15_Sp_counted_ptrIPN3ccl25ccl_allreduce_attr_impl_tELN9__gnu_cxx12_Lock_policyE2EE10_M_disposeEv
_ZNSt15_Sp_counted_ptrIPN3ccl25ccl_allreduce_attr_impl_tELN9__gnu_cxx12_Lock_policyE2EE14_M_get_deleterERKSt9type_info
_ZNSt15_Sp_counted_ptrIPN3ccl25ccl_allreduce_attr_impl_tELN9__gnu_cxx12_Lock_policyE2EED0Ev
_ZNSt15_Sp_counted_ptrIPN3ccl25ccl_allreduce_attr_impl_tELN9__gnu_cxx12_Lock_policyE2EED1Ev
_ZNSt15_Sp_counted_ptrIPN3ccl25ccl_alltoallv_attr_impl_tELN9__gnu_cxx12_Lock_policyE2EE10_M_destroyEv
_ZNSt15_Sp_counted_ptrIPN3ccl25ccl_alltoallv_attr_impl_tELN9__gnu_cxx12_Lock_policyE2EE10_M_disposeEv
_ZNSt15_Sp_counted_ptrIPN3ccl25ccl_alltoallv_attr_impl_tELN9__gnu_cxx12_Lock_policyE2EE14_M_get_deleterERKSt9type_info
_ZNSt15_Sp_counted_ptrIPN3ccl25ccl_alltoallv_attr_impl_tELN9__gnu_cxx12_Lock_policyE2EED0Ev
_ZNSt15_Sp_counted_ptrIPN3ccl25ccl_alltoallv_attr_impl_tELN9__gnu_cxx12_Lock_policyE2EED1Ev
_ZNSt15_Sp_counted_ptrIPN3ccl25ccl_broadcast_attr_impl_tELN9__gnu_cxx12_Lock_policyE2EE10_M_destroyEv
_ZNSt15_Sp_counted_ptrIPN3ccl25ccl_broadcast_attr_impl_tELN9__gnu_cxx12_Lock_policyE2EE10_M_disposeEv
_ZNSt15_Sp_counted_ptrIPN3ccl25ccl_broadcast_attr_impl_tELN9__gnu_cxx12_Lock_policyE2EE14_M_get_deleterERKSt9type_info
_ZNSt15_Sp_counted_ptrIPN3ccl25ccl_broadcast_attr_impl_tELN9__gnu_cxx12_Lock_policyE2EED0Ev
_ZNSt15_Sp_counted_ptrIPN3ccl25ccl_broadcast_attr_impl_tELN9__gnu_cxx12_Lock_policyE2EED1Ev
_ZNSt15_Sp_counted_ptrIPN3ccl26ccl_allgatherv_attr_impl_tELN9__gnu_cxx12_Lock_policyE2EE10_M_destroyEv
_ZNSt15_Sp_counted_ptrIPN3ccl26ccl_allgatherv_attr_impl_tELN9__gnu_cxx12_Lock_policyE2EE10_M_disposeEv
_ZNSt15_Sp_counted_ptrIPN3ccl26ccl_allgatherv_attr_impl_tELN9__gnu_cxx12_Lock_policyE2EE14_M_get_deleterERKSt9type_info
_ZNSt15_Sp_counted_ptrIPN3ccl26ccl_allgatherv_attr_impl_tELN9__gnu_cxx12_Lock_policyE2EED0Ev
_ZNSt15_Sp_counted_ptrIPN3ccl26ccl_allgatherv_attr_impl_tELN9__gnu_cxx12_Lock_policyE2EED1Ev
_ZNSt15_Sp_counted_ptrIPN3ccl2v13kvsELN9__gnu_cxx12_Lock_policyE2EE10_M_destroyEv
_ZNSt15_Sp_counted_ptrIPN3ccl2v13kvsELN9__gnu_cxx12_Lock_policyE2EE10_M_disposeEv
_ZNSt15_Sp_counted_ptrIPN3ccl2v13kvsELN9__gnu_cxx12_Lock_policyE2EE14_M_get_deleterERKSt9type_info
_ZNSt15_Sp_counted_ptrIPN3ccl2v13kvsELN9__gnu_cxx12_Lock_policyE2EED0Ev
_ZNSt15_Sp_counted_ptrIPN3ccl2v13kvsELN9__gnu_cxx12_Lock_policyE2EED1Ev
_ZNSt15_Sp_counted_ptrIPN3ccl30ccl_reduce_scatter_attr_impl_tELN9__gnu_cxx12_Lock_policyE2EE10_M_destroyEv
_ZNSt15_Sp_counted_ptrIPN3ccl30ccl_reduce_scatter_attr_impl_tELN9__gnu_cxx12_Lock_policyE2EE10_M_disposeEv
_ZNSt15_Sp_counted_ptrIPN3ccl30ccl_reduce_scatter_attr_impl_tELN9__gnu_cxx12_Lock_policyE2EE14_M_get_deleterERKSt9type_info
_ZNSt15_Sp_counted_ptrIPN3ccl30ccl_reduce_scatter_attr_impl_tELN9__gnu_cxx12_Lock_policyE2EED0Ev
_ZNSt15_Sp_counted_ptrIPN3ccl30ccl_reduce_scatter_attr_impl_tELN9__gnu_cxx12_Lock_policyE2EED1Ev
_ZNSt15_Sp_counted_ptrIPN3ccl32ccl_sparse_allreduce_attr_impl_tELN9__gnu_cxx12_Lock_policyE2EE10_M_destroyEv
_ZNSt15_Sp_counted_ptrIPN3ccl32ccl_sparse_allreduce_attr_impl_tELN9__gnu_cxx12_Lock_policyE2EE10_M_disposeEv
_ZNSt15_Sp_counted_ptrIPN3ccl32ccl_sparse_allreduce_attr_impl_tELN9__gnu_cxx12_Lock_policyE2EE14_M_get_deleterERKSt9type_info
_ZNSt15_Sp_counted_ptrIPN3ccl32ccl_sparse_allreduce_attr_impl_tELN9__gnu_cxx12_Lock_policyE2EED0Ev
_ZNSt15_Sp_counted_ptrIPN3ccl32ccl_sparse_allreduce_attr_impl_tELN9__gnu_cxx12_Lock_policyE2EED1Ev
_ZNSt17_Function_handlerIFvP9ccl_schedEZ29ccl_coll_build_double_tree_opS1_13ccl_coll_type10ccl_bufferS4_mRK12ccl_datatypeN3ccl2v19reductionERK15ccl_double_treeP8ccl_commEUlS1_E0_E9_M_invokeERKSt9_Any_dataOS1_
_ZNSt17_Function_handlerIFvP9ccl_schedEZ29ccl_coll_build_double_tree_opS1_13ccl_coll_type10ccl_bufferS4_mRK12ccl_datatypeN3ccl2v19reductionERK15ccl_double_treeP8ccl_commEUlS1_E1_E9_M_invokeERKSt9_Any_dataOS1_
_ZNSt17_Function_handlerIFvP9ccl_schedEZ29ccl_coll_build_double_tree_opS1_13ccl_coll_type10ccl_bufferS4_mRK12ccl_datatypeN3ccl2v19reductionERK15ccl_double_treeP8ccl_commEUlS1_E2_E9_M_invokeERKSt9_Any_dataOS1_
_ZNSt17_Function_handlerIFvP9ccl_schedEZ29ccl_coll_build_double_tree_opS1_13ccl_coll_type10ccl_bufferS4_mRK12ccl_datatypeN3ccl2v19reductionERK15ccl_double_treeP8ccl_commEUlS1_E3_E9_M_invokeERKSt9_Any_dataOS1_
_ZNSt17_Function_handlerIFvP9ccl_schedEZ29ccl_coll_build_double_tree_opS1_13ccl_coll_type10ccl_bufferS4_mRK12ccl_datatypeN3ccl2v19reductionERK15ccl_double_treeP8ccl_commEUlS1_E4_E9_M_invokeERKSt9_Any_dataOS1_
_ZNSt17_Function_handlerIFvP9ccl_schedEZ29ccl_coll_build_double_tree_opS1_13ccl_coll_type10ccl_bufferS4_mRK12ccl_datatypeN3ccl2v19reductionERK15ccl_double_treeP8ccl_commEUlS1_E5_E9_M_invokeERKSt9_Any_dataOS1_
_ZNSt17_Function_handlerIFvP9ccl_schedEZ29ccl_coll_build_double_tree_opS1_13ccl_coll_type10ccl_bufferS4_mRK12ccl_datatypeN3ccl2v19reductionERK15ccl_double_treeP8ccl_commEUlS1_E6_E9_M_invokeERKSt9_Any_dataOS1_
_ZNSt17_Function_handlerIFvP9ccl_schedEZ29ccl_coll_build_double_tree_opS1_13ccl_coll_type10ccl_bufferS4_mRK12ccl_datatypeN3ccl2v19reductionERK15ccl_double_treeP8ccl_commEUlS1_E7_E9_M_invokeERKSt9_Any_dataOS1_
_ZNSt17_Function_handlerIFvP9ccl_schedEZ29ccl_coll_build_double_tree_opS1_13ccl_coll_type10ccl_bufferS4_mRK12ccl_datatypeN3ccl2v19reductionERK15ccl_double_treeP8ccl_commEUlS1_E8_E9_M_invokeERKSt9_Any_dataOS1_
_ZNSt17_Function_handlerIFvP9ccl_schedEZ29ccl_coll_build_double_tree_opS1_13ccl_coll_type10ccl_bufferS4_mRK12ccl_datatypeN3ccl2v19reductionERK15ccl_double_treeP8ccl_commEUlS1_E_E9_M_invokeERKSt9_Any_dataOS1_
_ZNSt17_Function_handlerIFvP9ccl_schedEZ40ccl_coll_build_scatter_barrier_alltoallvP16ccl_master_schedRSt6vectorIS1_SaIS1_EERK14ccl_coll_paramEUlS1_E0_E9_M_invokeERKSt9_Any_dataOS1_
_ZNSt17_Function_handlerIFvP9ccl_schedEZ40ccl_coll_build_scatter_barrier_alltoallvP16ccl_master_schedRSt6vectorIS1_SaIS1_EERK14ccl_coll_paramEUlS1_E_E9_M_invokeERKSt9_Any_dataOS1_
_ZNSt17_Function_handlerIFvP9ccl_schedEZN17_INTERNALebf336ed55ccl_allreduce_2d_add_reduce_scatter_allreduce_allgatherES1_10ccl_bufferS4_mRK12ccl_datatypeN3ccl2v19reductionEP8ccl_commmmEUlS1_E0_E9_M_invokeERKSt9_Any_dataOS1_
_ZNSt17_Function_handlerIFvP9ccl_schedEZN17_INTERNALebf336ed55ccl_allreduce_2d_add_reduce_scatter_allreduce_allgatherES1_10ccl_bufferS4_mRK12ccl_datatypeN3ccl2v19reductionEP8ccl_commmmEUlS1_E_E9_M_invokeERKSt9_Any_dataOS1_
_ZNSt18unordered_multimapINSt7__cxx1112basic_stringIcSt11char_traitsIcESaIcEEEP16ccl_master_schedSt4hashIS5_ESt8equal_toIS5_ESaISt4pairIKS5_S7_EEED1Ev
_ZNSt19_Sp_counted_deleterIP10ccl_streamSt14default_deleteIS0_ESaIvELN9__gnu_cxx12_Lock_policyE2EE10_M_destroyEv
_ZNSt19_Sp_counted_deleterIP10ccl_streamSt14default_deleteIS0_ESaIvELN9__gnu_cxx12_Lock_policyE2EE10_M_disposeEv
_ZNSt19_Sp_counted_deleterIP10ccl_streamSt14default_deleteIS0_ESaIvELN9__gnu_cxx12_Lock_policyE2EE14_M_get_deleterERKSt9type_info
_ZNSt19_Sp_counted_deleterIP10ccl_streamSt14default_deleteIS0_ESaIvELN9__gnu_cxx12_Lock_policyE2EED0Ev
_ZNSt19_Sp_counted_deleterIP10ccl_streamSt14default_deleteIS0_ESaIvELN9__gnu_cxx12_Lock_policyE2EED1Ev
_ZNSt19_Sp_counted_deleterIPN3ccl22communicator_interfaceESt14default_deleteIS1_ESaIvELN9__gnu_cxx12_Lock_policyE2EE10_M_destroyEv
_ZNSt19_Sp_counted_deleterIPN3ccl22communicator_interfaceESt14default_deleteIS1_ESaIvELN9__gnu_cxx12_Lock_policyE2EE10_M_disposeEv
_ZNSt19_Sp_counted_deleterIPN3ccl22communicator_interfaceESt14default_deleteIS1_ESaIvELN9__gnu_cxx12_Lock_policyE2EE14_M_get_deleterERKSt9type_info
_ZNSt19_Sp_counted_deleterIPN3ccl22communicator_interfaceESt14default_deleteIS1_ESaIvELN9__gnu_cxx12_Lock_policyE2EED0Ev
_ZNSt19_Sp_counted_deleterIPN3ccl22communicator_interfaceESt14default_deleteIS1_ESaIvELN9__gnu_cxx12_Lock_policyE2EED1Ev
_ZNSt23_Sp_counted_ptr_inplaceI8ccl_commSaIS0_ELN9__gnu_cxx12_Lock_policyE2EE10_M_destroyEv
_ZNSt23_Sp_counted_ptr_inplaceI8ccl_commSaIS0_ELN9__gnu_cxx12_Lock_policyE2EE10_M_disposeEv
_ZNSt23_Sp_counted_ptr_inplaceI8ccl_commSaIS0_ELN9__gnu_cxx12_Lock_policyE2EE14_M_get_deleterERKSt9type_info
_ZNSt23_Sp_counted_ptr_inplaceI8ccl_commSaIS0_ELN9__gnu_cxx12_Lock_policyE2EE5_ImplD1Ev
_ZNSt23_Sp_counted_ptr_inplaceI8ccl_commSaIS0_ELN9__gnu_cxx12_Lock_policyE2EED0Ev
_ZNSt23_Sp_counted_ptr_inplaceI8ccl_commSaIS0_ELN9__gnu_cxx12_Lock_policyE2EED1Ev
_ZNSt23_Sp_counted_ptr_inplaceI9ccl_schedSaIS0_ELN9__gnu_cxx12_Lock_policyE2EE10_M_destroyEv
_ZNSt23_Sp_counted_ptr_inplaceI9ccl_schedSaIS0_ELN9__gnu_cxx12_Lock_policyE2EE10_M_disposeEv
_ZNSt23_Sp_counted_ptr_inplaceI9ccl_schedSaIS0_ELN9__gnu_cxx12_Lock_policyE2EE14_M_get_deleterERKSt9type_info
_ZNSt23_Sp_counted_ptr_inplaceI9ccl_schedSaIS0_ELN9__gnu_cxx12_Lock_policyE2EE5_ImplD1Ev
_ZNSt23_Sp_counted_ptr_inplaceI9ccl_schedSaIS0_ELN9__gnu_cxx12_Lock_policyE2EED0Ev
_ZNSt23_Sp_counted_ptr_inplaceI9ccl_schedSaIS0_ELN9__gnu_cxx12_Lock_policyE2EED1Ev
_ZNSt3mapI14ccl_yield_typeNSt7__cxx1112basic_stringIcSt11char_traitsIcESaIcEEESt4lessIS0_ESaISt4pairIKS0_S6_EEED1Ev
_ZNSt3mapI17ccl_atl_transportNSt7__cxx1112basic_stringIcSt11char_traitsIcESaIcEEESt4lessIS0_ESaISt4pairIKS0_S6_EEED1Ev
_ZNSt3mapI17ccl_priority_modeNSt7__cxx1112basic_stringIcSt11char_traitsIcESaIcEEESt4lessIS0_ESaISt4pairIKS0_S6_EEED1Ev
_ZNSt3mapI18ccl_cache_key_typeNSt7__cxx1112basic_stringIcSt11char_traitsIcESaIcEEESt4lessIS0_ESaISt4pairIKS0_S6_EEED1Ev
_ZNSt3mapI19ccl_coll_bcast_algoNSt7__cxx1112basic_stringIcSt11char_traitsIcESaIcEEESt4lessIS0_ESaISt4pairIKS0_S6_EEED1Ev
_ZNSt3mapI20ccl_coll_reduce_algoNSt7__cxx1112basic_stringIcSt11char_traitsIcESaIcEEESt4lessIS0_ESaISt4pairIKS0_S6_EEED1Ev
_ZNSt3mapI21ccl_coll_barrier_algoNSt7__cxx1112basic_stringIcSt11char_traitsIcESaIcEEESt4lessIS0_ESaISt4pairIKS0_S6_EEED1Ev
_ZNSt3mapI22ccl_coll_alltoall_algoNSt7__cxx1112basic_stringIcSt11char_traitsIcESaIcEEESt4lessIS0_ESaISt4pairIKS0_S6_EEED1Ev
_ZNSt3mapI23ccl_coll_allreduce_algoNSt7__cxx1112basic_stringIcSt11char_traitsIcESaIcEEESt4lessIS0_ESaISt4pairIKS0_S6_EEED1Ev
_ZNSt3mapI23ccl_coll_alltoallv_algoNSt7__cxx1112basic_stringIcSt11char_traitsIcESaIcEEESt4lessIS0_ESaISt4pairIKS0_S6_EEED1Ev
_ZNSt3mapI24ccl_coll_allgatherv_algoNSt7__cxx1112basic_stringIcSt11char_traitsIcESaIcEEESt4lessIS0_ESaISt4pairIKS0_S6_EEED1Ev
_ZNSt3mapI28ccl_coll_reduce_scatter_algoNSt7__cxx1112basic_stringIcSt11char_traitsIcESaIcEEESt4lessIS0_ESaISt4pairIKS0_S6_EEED1Ev
_ZNSt3mapI30ccl_coll_sparse_allreduce_algoNSt7__cxx1112basic_stringIcSt11char_traitsIcESaIcEEESt4lessIS0_ESaISt4pairIKS0_S6_EEED1Ev
_ZNSt3mapIiN3ccl2v16deviceESt4lessIiESaISt4pairIKiS2_EEED1Ev
_ZNSt3mapIiSt10shared_ptrIN6native10ccl_deviceEESt4lessIiESaISt4pairIKiS3_EEED1Ev
_ZNSt3mapImSt4pairI19ccl_coll_bcast_algo25ccl_selection_border_typeESt4lessImESaIS0_IKmS3_EEED1Ev
_ZNSt3mapImSt4pairI19ccl_coll_bcast_algo25ccl_selection_border_typeESt4lessImESaIS0_IKmS3_EEEixEOm
_ZNSt3mapImSt4pairI19ccl_coll_bcast_algo25ccl_selection_border_typeESt4lessImESaIS0_IKmS3_EEEixERS6_
_ZNSt3mapImSt4pairI20ccl_coll_reduce_algo25ccl_selection_border_typeESt4lessImESaIS0_IKmS3_EEED1Ev
_ZNSt3mapImSt4pairI20ccl_coll_reduce_algo25ccl_selection_border_typeESt4lessImESaIS0_IKmS3_EEEixEOm
_ZNSt3mapImSt4pairI20ccl_coll_reduce_algo25ccl_selection_border_typeESt4lessImESaIS0_IKmS3_EEEixERS6_
_ZNSt3mapImSt4pairI21ccl_coll_barrier_algo25ccl_selection_border_typeESt4lessImESaIS0_IKmS3_EEED1Ev
_ZNSt3mapImSt4pairI21ccl_coll_barrier_algo25ccl_selection_border_typeESt4lessImESaIS0_IKmS3_EEEixEOm
_ZNSt3mapImSt4pairI21ccl_coll_barrier_algo25ccl_selection_border_typeESt4lessImESaIS0_IKmS3_EEEixERS6_
_ZNSt3mapImSt4pairI22ccl_coll_alltoall_algo25ccl_selection_border_typeESt4lessImESaIS0_IKmS3_EEED1Ev
_ZNSt3mapImSt4pairI22ccl_coll_alltoall_algo25ccl_selection_border_typeESt4lessImESaIS0_IKmS3_EEEixEOm
_ZNSt3mapImSt4pairI22ccl_coll_alltoall_algo25ccl_selection_border_typeESt4lessImESaIS0_IKmS3_EEEixERS6_
_ZNSt3mapImSt4pairI23ccl_coll_allreduce_algo25ccl_selection_border_typeESt4lessImESaIS0_IKmS3_EEED1Ev
_ZNSt3mapImSt4pairI23ccl_coll_allreduce_algo25ccl_selection_border_typeESt4lessImESaIS0_IKmS3_EEEixEOm
_ZNSt3mapImSt4pairI23ccl_coll_allreduce_algo25ccl_selection_border_typeESt4lessImESaIS0_IKmS3_EEEixERS6_
_ZNSt3mapImSt4pairI23ccl_coll_alltoallv_algo25ccl_selection_border_typeESt4lessImESaIS0_IKmS3_EEED1Ev
_ZNSt3mapImSt4pairI23ccl_coll_alltoallv_algo25ccl_selection_border_typeESt4lessImESaIS0_IKmS3_EEEixEOm
_ZNSt3mapImSt4pairI23ccl_coll_alltoallv_algo25ccl_selection_border_typeESt4lessImESaIS0_IKmS3_EEEixERS6_
_ZNSt3mapImSt4pairI24ccl_coll_allgatherv_algo25ccl_selection_border_typeESt4lessImESaIS0_IKmS3_EEED1Ev
_ZNSt3mapImSt4pairI24ccl_coll_allgatherv_algo25ccl_selection_border_typeESt4lessImESaIS0_IKmS3_EEEixEOm
_ZNSt3mapImSt4pairI24ccl_coll_allgatherv_algo25ccl_selection_border_typeESt4lessImESaIS0_IKmS3_EEEixERS6_
_ZNSt3mapImSt4pairI28ccl_coll_reduce_scatter_algo25ccl_selection_border_typeESt4lessImESaIS0_IKmS3_EEED1Ev
_ZNSt3mapImSt4pairI28ccl_coll_reduce_scatter_algo25ccl_selection_border_typeESt4lessImESaIS0_IKmS3_EEEixEOm
_ZNSt3mapImSt4pairI28ccl_coll_reduce_scatter_algo25ccl_selection_border_typeESt4lessImESaIS0_IKmS3_EEEixERS6_
_ZNSt3mapImSt4pairI30ccl_coll_sparse_allreduce_algo25ccl_selection_border_typeESt4lessImESaIS0_IKmS3_EEED1Ev
_ZNSt3mapImSt4pairI30ccl_coll_sparse_allreduce_algo25ccl_selection_border_typeESt4lessImESaIS0_IKmS3_EEEixEOm
_ZNSt3mapImSt4pairI30ccl_coll_sparse_allreduce_algo25ccl_selection_border_typeESt4lessImESaIS0_IKmS3_EEEixERS6_
_ZNSt3mapINSt7__cxx1112basic_stringIcSt11char_traitsIcESaIcEEEP15ccl_extra_schedSt4lessIS5_ESaISt4pairIKS5_S7_EEED1Ev
_ZNSt3setI25ccl_selection_border_typeSt4lessIS0_ESaIS0_EEC1ESt16initializer_listIS0_ERKS2_RKS3_
_ZNSt3setI25ccl_selection_border_typeSt4lessIS0_ESaIS0_EED1Ev
_ZNSt4pairI19ccl_coll_bcast_algo25ccl_selection_border_typeEaSEOS2_
_ZNSt4pairI19ccl_coll_bcast_algoNSt7__cxx1112basic_stringIcSt11char_traitsIcESaIcEEEED1Ev
_ZNSt4pairI20ccl_coll_reduce_algo25ccl_selection_border_typeEaSEOS2_
_ZNSt4pairI20ccl_coll_reduce_algoNSt7__cxx1112basic_stringIcSt11char_traitsIcESaIcEEEED1Ev
_ZNSt4pairI21ccl_coll_barrier_algo25ccl_selection_border_typeEaSEOS2_
_ZNSt4pairI21ccl_coll_barrier_algoNSt7__cxx1112basic_stringIcSt11char_traitsIcESaIcEEEED1Ev
_ZNSt4pairI22ccl_coll_alltoall_algo25ccl_selection_border_typeEaSEOS2_
_ZNSt4pairI22ccl_coll_alltoall_algoNSt7__cxx1112basic_stringIcSt11char_traitsIcESaIcEEEED1Ev
_ZNSt4pairI23ccl_coll_allreduce_algo25ccl_selection_border_typeEaSEOS2_
_ZNSt4pairI23ccl_coll_allreduce_algoNSt7__cxx1112basic_stringIcSt11char_traitsIcESaIcEEEED1Ev
_ZNSt4pairI23ccl_coll_alltoallv_algo25ccl_selection_border_typeEaSEOS2_
_ZNSt4pairI23ccl_coll_alltoallv_algoNSt7__cxx1112basic_stringIcSt11char_traitsIcESaIcEEEED1Ev
_ZNSt4pairI24ccl_coll_allgatherv_algo25ccl_selection_border_typeEaSEOS2_
_ZNSt4pairI24ccl_coll_allgatherv_algoNSt7__cxx1112basic_stringIcSt11char_traitsIcESaIcEEEED1Ev
_ZNSt4pairI28ccl_coll_reduce_scatter_algo25ccl_selection_border_typeEaSEOS2_
_ZNSt4pairI28ccl_coll_reduce_scatter_algoNSt7__cxx1112basic_stringIcSt11char_traitsIcESaIcEEEED1Ev
_ZNSt4pairI30ccl_coll_sparse_allreduce_algo25ccl_selection_border_typeEaSEOS2_
_ZNSt4pairI30ccl_coll_sparse_allreduce_algoNSt7__cxx1112basic_stringIcSt11char_traitsIcESaIcEEEED1Ev
_ZNSt4pairIbSt10shared_ptrIN6native10ccl_deviceEEED1Ev
_ZNSt4pairIiN3ccl2v16deviceEED1Ev
_ZNSt4pairIiSt10shared_ptrIN6native10ccl_deviceEEED1Ev
_ZNSt4pairIK14ccl_yield_typeNSt7__cxx1112basic_stringIcSt11char_traitsIcESaIcEEEED1Ev
_ZNSt4pairIK17ccl_atl_transportNSt7__cxx1112basic_stringIcSt11char_traitsIcESaIcEEEED1Ev
_ZNSt4pairIK17ccl_priority_modeNSt7__cxx1112basic_stringIcSt11char_traitsIcESaIcEEEED1Ev
_ZNSt4pairIK18ccl_cache_key_typeNSt7__cxx1112basic_stringIcSt11char_traitsIcESaIcEEEED1Ev
_ZNSt4pairIK19ccl_coll_bcast_algoNSt7__cxx1112basic_stringIcSt11char_traitsIcESaIcEEEED1Ev
_ZNSt4pairIK20ccl_coll_reduce_algoNSt7__cxx1112basic_stringIcSt11char_traitsIcESaIcEEEED1Ev
_ZNSt4pairIK21ccl_coll_barrier_algoNSt7__cxx1112basic_stringIcSt11char_traitsIcESaIcEEEED1Ev
_ZNSt4pairIK22ccl_coll_alltoall_algoNSt7__cxx1112basic_stringIcSt11char_traitsIcESaIcEEEED1Ev
_ZNSt4pairIK23ccl_coll_allreduce_algoNSt7__cxx1112basic_stringIcSt11char_traitsIcESaIcEEEED1Ev
_ZNSt4pairIK23ccl_coll_alltoallv_algoNSt7__cxx1112basic_stringIcSt11char_traitsIcESaIcEEEED1Ev
_ZNSt4pairIK24ccl_coll_allgatherv_algoNSt7__cxx1112basic_stringIcSt11char_traitsIcESaIcEEEED1Ev
_ZNSt4pairIK28ccl_coll_reduce_scatter_algoNSt7__cxx1112basic_stringIcSt11char_traitsIcESaIcEEEED1Ev
_ZNSt4pairIK30ccl_coll_sparse_allreduce_algoNSt7__cxx1112basic_stringIcSt11char_traitsIcESaIcEEEED1Ev
_ZNSt4pairIKiN3ccl2v16deviceEED1Ev
_ZNSt4pairIKiSt10shared_ptrIN6native10ccl_deviceEEED1Ev
_ZNSt4pairINSt7__cxx1112basic_stringIcSt11char_traitsIcESaIcEEEP16ccl_master_schedED1Ev
_ZNSt5dequeIP16ccl_master_schedSaIS1_EE15_M_erase_at_endESt15_Deque_iteratorIS1_RS1_PS1_E
_ZNSt5dequeIP16ccl_master_schedSaIS1_EE17_M_reallocate_mapEmb
_ZNSt5dequeIP16ccl_master_schedSaIS1_EE8_M_eraseESt15_Deque_iteratorIS1_RS1_PS1_E
_ZNSt5dequeIP16ccl_master_schedSaIS1_EED1Ev
_ZNSt6vectorI10ccl_bufferSaIS0_EE17_M_default_appendEm
_ZNSt6vectorI10ccl_bufferSaIS0_EEC1Ev
_ZNSt6vectorI10ccl_bufferSaIS0_EED1Ev
_ZNSt6vectorIN3ccl2v112communicatorESaIS2_EEC1Ev
_ZNSt6vectorIN3ccl2v112communicatorESaIS2_EED1Ev
_ZNSt6vectorIN3ccl2v15eventESaIS2_EEC1Ev
_ZNSt6vectorIN3ccl2v15eventESaIS2_EED1Ev
_ZNSt6vectorIN3ccl2v18bfloat16ESaIS2_EEC1IPS2_vEET_S7_RKS3_
_ZNSt6vectorIN3ccl2v18bfloat16ESaIS2_EED1Ev
_ZNSt6vectorIP13ccl_sched_binSaIS1_EEC1Ev
_ZNSt6vectorIP13ccl_sched_binSaIS1_EED1Ev
_ZNSt6vectorIP16ccl_master_schedSaIS1_EEC1Ev
_ZNSt6vectorIP16ccl_master_schedSaIS1_EED1Ev
_ZNSt6vectorIP29ccl_parallelizer_prologue_ctxSaIS1_EEC1Ev
_ZNSt6vectorIP29ccl_parallelizer_prologue_ctxSaIS1_EED1Ev
_ZNSt6vectorIP9ccl_schedSaIS1_EEC1Ev
_ZNSt6vectorIP9ccl_schedSaIS1_EEC1IN9__gnu_cxx17__normal_iteratorIPS1_S3_EEvEET_S9_RKS2_
_ZNSt6vectorIP9ccl_schedSaIS1_EED1Ev
_ZNSt6vectorIPKSt3mapImSt4pairI19ccl_coll_bcast_algo25ccl_selection_border_typeESt4lessImESaIS1_IKmS4_EEESaISC_EED1Ev
_ZNSt6vectorIPKSt3mapImSt4pairI20ccl_coll_reduce_algo25ccl_selection_border_typeESt4lessImESaIS1_IKmS4_EEESaISC_EED1Ev
_ZNSt6vectorIPKSt3mapImSt4pairI21ccl_coll_barrier_algo25ccl_selection_border_typeESt4lessImESaIS1_IKmS4_EEESaISC_EED1Ev
_ZNSt6vectorIPKSt3mapImSt4pairI22ccl_coll_alltoall_algo25ccl_selection_border_typeESt4lessImESaIS1_IKmS4_EEESaISC_EED1Ev
_ZNSt6vectorIPKSt3mapImSt4pairI23ccl_coll_allreduce_algo25ccl_selection_border_typeESt4lessImESaIS1_IKmS4_EEESaISC_EED1Ev
_ZNSt6vectorIPKSt3mapImSt4pairI23ccl_coll_alltoallv_algo25ccl_selection_border_typeESt4lessImESaIS1_IKmS4_EEESaISC_EED1Ev
_ZNSt6vectorIPKSt3mapImSt4pairI24ccl_coll_allgatherv_algo25ccl_selection_border_typeESt4lessImESaIS1_IKmS4_EEESaISC_EED1Ev
_ZNSt6vectorIPKSt3mapImSt4pairI28ccl_coll_reduce_scatter_algo25ccl_selection_border_typeESt4lessImESaIS1_IKmS4_EEESaISC_EED1Ev
_ZNSt6vectorIPKSt3mapImSt4pairI30ccl_coll_sparse_allreduce_algo25ccl_selection_border_typeESt4lessImESaIS1_IKmS4_EEESaISC_EED1Ev
_ZNSt6vectorISt10shared_ptrI9ccl_schedESaIS2_EEC1Ev
_ZNSt6vectorISt10shared_ptrI9ccl_schedESaIS2_EED1Ev
_ZNSt6vectorISt10unique_ptrI10ccl_workerSt14default_deleteIS1_EESaIS4_EEC1Ev
_ZNSt6vectorISt10unique_ptrI10ccl_workerSt14default_deleteIS1_EESaIS4_EED1Ev
_ZNSt7__cxx114listIP16ccl_master_schedSaIS2_EED1Ev
_ZNSt8__detail16_Hashtable_allocISaINS_10_Hash_nodeISt4pairIK13ccl_sched_keyP16ccl_master_schedELb1EEEEE17_M_node_allocatorEv
_ZNSt8__detail16_Hashtable_allocISaINS_10_Hash_nodeISt4pairIK13ccl_sched_keyP16ccl_master_schedELb1EEEEE18_M_deallocate_nodeEPS8_
_ZNSt8__detail16_Hashtable_allocISaINS_10_Hash_nodeISt4pairIK13ccl_sched_keyP16ccl_master_schedELb1EEEEED1Ev
_ZNSt8__detail16_Hashtable_allocISaINS_10_Hash_nodeISt4pairIKm13ccl_sched_binELb0EEEEE17_M_node_allocatorEv
_ZNSt8__detail16_Hashtable_allocISaINS_10_Hash_nodeISt4pairIKm13ccl_sched_binELb0EEEEE18_M_deallocate_nodeEPS6_
_ZNSt8__detail16_Hashtable_allocISaINS_10_Hash_nodeISt4pairIKm13ccl_sched_binELb0EEEEED1Ev
_ZNSt8__detail16_Hashtable_allocISaINS_10_Hash_nodeISt4pairIKN3ccl2v18datatypeES2_I12ccl_datatypeNSt7__cxx1112basic_stringIcSt11char_traitsIcESaIcEEEEELb1EEEEE17_M_node_allocatorEv
_ZNSt8__detail16_Hashtable_allocISaINS_10_Hash_nodeISt4pairIKN3ccl2v18datatypeES2_I12ccl_datatypeNSt7__cxx1112basic_stringIcSt11char_traitsIcESaIcEEEEELb1EEEEE18_M_deallocate_nodeEPSG_
_ZNSt8__detail16_Hashtable_allocISaINS_10_Hash_nodeISt4pairIKN3ccl2v18datatypeES2_I12ccl_datatypeNSt7__cxx1112basic_stringIcSt11char_traitsIcESaIcEEEEELb1EEEEED1Ev
_ZNSt8__detail16_Hashtable_allocISaINS_10_Hash_nodeISt4pairIKNSt7__cxx1112basic_stringIcSt11char_traitsIcESaIcEEEN19ccl_comm_id_storage7comm_idEELb1EEEEE17_M_node_allocatorEv
_ZNSt8__detail16_Hashtable_allocISaINS_10_Hash_nodeISt4pairIKNSt7__cxx1112basic_stringIcSt11char_traitsIcESaIcEEEN19ccl_comm_id_storage7comm_idEELb1EEEEE18_M_deallocate_nodeEPSD_
_ZNSt8__detail16_Hashtable_allocISaINS_10_Hash_nodeISt4pairIKNSt7__cxx1112basic_stringIcSt11char_traitsIcESaIcEEEN19ccl_comm_id_storage7comm_idEELb1EEEEED1Ev
_ZNSt8__detail16_Hashtable_allocISaINS_10_Hash_nodeISt4pairIKNSt7__cxx1112basic_stringIcSt11char_traitsIcESaIcEEEP16ccl_master_schedELb1EEEEE17_M_node_allocatorEv
_ZNSt8__detail16_Hashtable_allocISaINS_10_Hash_nodeISt4pairIKNSt7__cxx1112basic_stringIcSt11char_traitsIcESaIcEEEP16ccl_master_schedELb1EEEEE18_M_deallocate_nodeEPSD_
_ZNSt8__detail16_Hashtable_allocISaINS_10_Hash_nodeISt4pairIKNSt7__cxx1112basic_stringIcSt11char_traitsIcESaIcEEEP16ccl_master_schedELb1EEEEED1Ev
_ZNSt8__detail16_Hashtable_allocISaINS_10_Hash_nodeISt4pairIKNSt7__cxx1112basic_stringIcSt11char_traitsIcESaIcEEESt10shared_ptrI8ccl_commEELb1EEEEE17_M_node_allocatorEv
_ZNSt8__detail16_Hashtable_allocISaINS_10_Hash_nodeISt4pairIKNSt7__cxx1112basic_stringIcSt11char_traitsIcESaIcEEESt10shared_ptrI8ccl_commEELb1EEEEE18_M_deallocate_nodeEPSE_
_ZNSt8__detail16_Hashtable_allocISaINS_10_Hash_nodeISt4pairIKNSt7__cxx1112basic_stringIcSt11char_traitsIcESaIcEEESt10shared_ptrI8ccl_commEELb1EEEEED1Ev
_ZNSt8functionIFvP9ccl_schedEED1Ev
_ZNSt8_Rb_treeI14ccl_yield_typeSt4pairIKS0_NSt7__cxx1112basic_stringIcSt11char_traitsIcESaIcEEEESt10_Select1stIS9_ESt4lessIS0_ESaIS9_EE11_M_put_nodeEPSt13_Rb_tree_nodeIS9_E
_ZNSt8_Rb_treeI14ccl_yield_typeSt4pairIKS0_NSt7__cxx1112basic_stringIcSt11char_traitsIcESaIcEEEESt10_Select1stIS9_ESt4lessIS0_ESaIS9_EE13_Rb_tree_implISD_Lb1EED1Ev
_ZNSt8_Rb_treeI14ccl_yield_typeSt4pairIKS0_NSt7__cxx1112basic_stringIcSt11char_traitsIcESaIcEEEESt10_Select1stIS9_ESt4lessIS0_ESaIS9_EE8_M_eraseEPSt13_Rb_tree_nodeIS9_E
_ZNSt8_Rb_treeI14ccl_yield_typeSt4pairIKS0_NSt7__cxx1112basic_stringIcSt11char_traitsIcESaIcEEEESt10_Select1stIS9_ESt4lessIS0_ESaIS9_EED1Ev
_ZNSt8_Rb_treeI17ccl_atl_transportSt4pairIKS0_NSt7__cxx1112basic_stringIcSt11char_traitsIcESaIcEEEESt10_Select1stIS9_ESt4lessIS0_ESaIS9_EE11_M_put_nodeEPSt13_Rb_tree_nodeIS9_E
_ZNSt8_Rb_treeI17ccl_atl_transportSt4pairIKS0_NSt7__cxx1112basic_stringIcSt11char_traitsIcESaIcEEEESt10_Select1stIS9_ESt4lessIS0_ESaIS9_EE13_Rb_tree_implISD_Lb1EED1Ev
_ZNSt8_Rb_treeI17ccl_atl_transportSt4pairIKS0_NSt7__cxx1112basic_stringIcSt11char_traitsIcESaIcEEEESt10_Select1stIS9_ESt4lessIS0_ESaIS9_EE8_M_eraseEPSt13_Rb_tree_nodeIS9_E
_ZNSt8_Rb_treeI17ccl_atl_transportSt4pairIKS0_NSt7__cxx1112basic_stringIcSt11char_traitsIcESaIcEEEESt10_Select1stIS9_ESt4lessIS0_ESaIS9_EED1Ev
_ZNSt8_Rb_treeI17ccl_priority_modeSt4pairIKS0_NSt7__cxx1112basic_stringIcSt11char_traitsIcESaIcEEEESt10_Select1stIS9_ESt4lessIS0_ESaIS9_EE11_M_put_nodeEPSt13_Rb_tree_nodeIS9_E
_ZNSt8_Rb_treeI17ccl_priority_modeSt4pairIKS0_NSt7__cxx1112basic_stringIcSt11char_traitsIcESaIcEEEESt10_Select1stIS9_ESt4lessIS0_ESaIS9_EE13_Rb_tree_implISD_Lb1EED1Ev
_ZNSt8_Rb_treeI17ccl_priority_modeSt4pairIKS0_NSt7__cxx1112basic_stringIcSt11char_traitsIcESaIcEEEESt10_Select1stIS9_ESt4lessIS0_ESaIS9_EE8_M_eraseEPSt13_Rb_tree_nodeIS9_E
_ZNSt8_Rb_treeI17ccl_priority_modeSt4pairIKS0_NSt7__cxx1112basic_stringIcSt11char_traitsIcESaIcEEEESt10_Select1stIS9_ESt4lessIS0_ESaIS9_EED1Ev
_ZNSt8_Rb_treeI18ccl_cache_key_typeSt4pairIKS0_NSt7__cxx1112basic_stringIcSt11char_traitsIcESaIcEEEESt10_Select1stIS9_ESt4lessIS0_ESaIS9_EE11_M_put_nodeEPSt13_Rb_tree_nodeIS9_E
_ZNSt8_Rb_treeI18ccl_cache_key_typeSt4pairIKS0_NSt7__cxx1112basic_stringIcSt11char_traitsIcESaIcEEEESt10_Select1stIS9_ESt4lessIS0_ESaIS9_EE13_Rb_tree_implISD_Lb1EED1Ev
_ZNSt8_Rb_treeI18ccl_cache_key_typeSt4pairIKS0_NSt7__cxx1112basic_stringIcSt11char_traitsIcESaIcEEEESt10_Select1stIS9_ESt4lessIS0_ESaIS9_EE8_M_eraseEPSt13_Rb_tree_nodeIS9_E
_ZNSt8_Rb_treeI18ccl_cache_key_typeSt4pairIKS0_NSt7__cxx1112basic_stringIcSt11char_traitsIcESaIcEEEESt10_Select1stIS9_ESt4lessIS0_ESaIS9_EED1Ev
_ZNSt8_Rb_treeI19ccl_coll_bcast_algoSt4pairIKS0_NSt7__cxx1112basic_stringIcSt11char_traitsIcESaIcEEEESt10_Select1stIS9_ESt4lessIS0_ESaIS9_EE11_M_put_nodeEPSt13_Rb_tree_nodeIS9_E
_ZNSt8_Rb_treeI19ccl_coll_bcast_algoSt4pairIKS0_NSt7__cxx1112basic_stringIcSt11char_traitsIcESaIcEEEESt10_Select1stIS9_ESt4lessIS0_ESaIS9_EE13_Rb_tree_implISD_Lb1EED1Ev
_ZNSt8_Rb_treeI19ccl_coll_bcast_algoSt4pairIKS0_NSt7__cxx1112basic_stringIcSt11char_traitsIcESaIcEEEESt10_Select1stIS9_ESt4lessIS0_ESaIS9_EE8_M_eraseEPSt13_Rb_tree_nodeIS9_E
_ZNSt8_Rb_treeI19ccl_coll_bcast_algoSt4pairIKS0_NSt7__cxx1112basic_stringIcSt11char_traitsIcESaIcEEEESt10_Select1stIS9_ESt4lessIS0_ESaIS9_EED1Ev
_ZNSt8_Rb_treeI20ccl_coll_reduce_algoSt4pairIKS0_NSt7__cxx1112basic_stringIcSt11char_traitsIcESaIcEEEESt10_Select1stIS9_ESt4lessIS0_ESaIS9_EE11_M_put_nodeEPSt13_Rb_tree_nodeIS9_E
_ZNSt8_Rb_treeI20ccl_coll_reduce_algoSt4pairIKS0_NSt7__cxx1112basic_stringIcSt11char_traitsIcESaIcEEEESt10_Select1stIS9_ESt4lessIS0_ESaIS9_EE13_Rb_tree_implISD_Lb1EED1Ev
_ZNSt8_Rb_treeI20ccl_coll_reduce_algoSt4pairIKS0_NSt7__cxx1112basic_stringIcSt11char_traitsIcESaIcEEEESt10_Select1stIS9_ESt4lessIS0_ESaIS9_EE8_M_eraseEPSt13_Rb_tree_nodeIS9_E
_ZNSt8_Rb_treeI20ccl_coll_reduce_algoSt4pairIKS0_NSt7__cxx1112basic_stringIcSt11char_traitsIcESaIcEEEESt10_Select1stIS9_ESt4lessIS0_ESaIS9_EED1Ev
_ZNSt8_Rb_treeI21ccl_coll_barrier_algoSt4pairIKS0_NSt7__cxx1112basic_stringIcSt11char_traitsIcESaIcEEEESt10_Select1stIS9_ESt4lessIS0_ESaIS9_EE11_M_put_nodeEPSt13_Rb_tree_nodeIS9_E
_ZNSt8_Rb_treeI21ccl_coll_barrier_algoSt4pairIKS0_NSt7__cxx1112basic_stringIcSt11char_traitsIcESaIcEEEESt10_Select1stIS9_ESt4lessIS0_ESaIS9_EE13_Rb_tree_implISD_Lb1EED1Ev
_ZNSt8_Rb_treeI21ccl_coll_barrier_algoSt4pairIKS0_NSt7__cxx1112basic_stringIcSt11char_traitsIcESaIcEEEESt10_Select1stIS9_ESt4lessIS0_ESaIS9_EE8_M_eraseEPSt13_Rb_tree_nodeIS9_E
_ZNSt8_Rb_treeI21ccl_coll_barrier_algoSt4pairIKS0_NSt7__cxx1112basic_stringIcSt11char_traitsIcESaIcEEEESt10_Select1stIS9_ESt4lessIS0_ESaIS9_EED1Ev
_ZNSt8_Rb_treeI22ccl_coll_alltoall_algoSt4pairIKS0_NSt7__cxx1112basic_stringIcSt11char_traitsIcESaIcEEEESt10_Select1stIS9_ESt4lessIS0_ESaIS9_EE11_M_put_nodeEPSt13_Rb_tree_nodeIS9_E
_ZNSt8_Rb_treeI22ccl_coll_alltoall_algoSt4pairIKS0_NSt7__cxx1112basic_stringIcSt11char_traitsIcESaIcEEEESt10_Select1stIS9_ESt4lessIS0_ESaIS9_EE13_Rb_tree_implISD_Lb1EED1Ev
_ZNSt8_Rb_treeI22ccl_coll_alltoall_algoSt4pairIKS0_NSt7__cxx1112basic_stringIcSt11char_traitsIcESaIcEEEESt10_Select1stIS9_ESt4lessIS0_ESaIS9_EE8_M_eraseEPSt13_Rb_tree_nodeIS9_E
_ZNSt8_Rb_treeI22ccl_coll_alltoall_algoSt4pairIKS0_NSt7__cxx1112basic_stringIcSt11char_traitsIcESaIcEEEESt10_Select1stIS9_ESt4lessIS0_ESaIS9_EED1Ev
_ZNSt8_Rb_treeI23ccl_coll_allreduce_algoSt4pairIKS0_NSt7__cxx1112basic_stringIcSt11char_traitsIcESaIcEEEESt10_Select1stIS9_ESt4lessIS0_ESaIS9_EE11_M_put_nodeEPSt13_Rb_tree_nodeIS9_E
_ZNSt8_Rb_treeI23ccl_coll_allreduce_algoSt4pairIKS0_NSt7__cxx1112basic_stringIcSt11char_traitsIcESaIcEEEESt10_Select1stIS9_ESt4lessIS0_ESaIS9_EE13_Rb_tree_implISD_Lb1EED1Ev
_ZNSt8_Rb_treeI23ccl_coll_allreduce_algoSt4pairIKS0_NSt7__cxx1112basic_stringIcSt11char_traitsIcESaIcEEEESt10_Select1stIS9_ESt4lessIS0_ESaIS9_EE29_M_get_insert_hint_unique_posESt23_Rb_tree_const_iteratorIS9_ERS2_
_ZNSt8_Rb_treeI23ccl_coll_allreduce_algoSt4pairIKS0_NSt7__cxx1112basic_stringIcSt11char_traitsIcESaIcEEEESt10_Select1stIS9_ESt4lessIS0_ESaIS9_EE8_M_eraseEPSt13_Rb_tree_nodeIS9_E
_ZNSt8_Rb_treeI23ccl_coll_allreduce_algoSt4pairIKS0_NSt7__cxx1112basic_stringIcSt11char_traitsIcESaIcEEEESt10_Select1stIS9_ESt4lessIS0_ESaIS9_EED1Ev
_ZNSt8_Rb_treeI23ccl_coll_alltoallv_algoSt4pairIKS0_NSt7__cxx1112basic_stringIcSt11char_traitsIcESaIcEEEESt10_Select1stIS9_ESt4lessIS0_ESaIS9_EE11_M_put_nodeEPSt13_Rb_tree_nodeIS9_E
_ZNSt8_Rb_treeI23ccl_coll_alltoallv_algoSt4pairIKS0_NSt7__cxx1112basic_stringIcSt11char_traitsIcESaIcEEEESt10_Select1stIS9_ESt4lessIS0_ESaIS9_EE13_Rb_tree_implISD_Lb1EED1Ev
_ZNSt8_Rb_treeI23ccl_coll_alltoallv_algoSt4pairIKS0_NSt7__cxx1112basic_stringIcSt11char_traitsIcESaIcEEEESt10_Select1stIS9_ESt4lessIS0_ESaIS9_EE8_M_eraseEPSt13_Rb_tree_nodeIS9_E
_ZNSt8_Rb_treeI23ccl_coll_alltoallv_algoSt4pairIKS0_NSt7__cxx1112basic_stringIcSt11char_traitsIcESaIcEEEESt10_Select1stIS9_ESt4lessIS0_ESaIS9_EED1Ev
_ZNSt8_Rb_treeI24ccl_coll_allgatherv_algoSt4pairIKS0_NSt7__cxx1112basic_stringIcSt11char_traitsIcESaIcEEEESt10_Select1stIS9_ESt4lessIS0_ESaIS9_EE11_M_put_nodeEPSt13_Rb_tree_nodeIS9_E
_ZNSt8_Rb_treeI24ccl_coll_allgatherv_algoSt4pairIKS0_NSt7__cxx1112basic_stringIcSt11char_traitsIcESaIcEEEESt10_Select1stIS9_ESt4lessIS0_ESaIS9_EE13_Rb_tree_implISD_Lb1EED1Ev
_ZNSt8_Rb_treeI24ccl_coll_allgatherv_algoSt4pairIKS0_NSt7__cxx1112basic_stringIcSt11char_traitsIcESaIcEEEESt10_Select1stIS9_ESt4lessIS0_ESaIS9_EE8_M_eraseEPSt13_Rb_tree_nodeIS9_E
_ZNSt8_Rb_treeI24ccl_coll_allgatherv_algoSt4pairIKS0_NSt7__cxx1112basic_stringIcSt11char_traitsIcESaIcEEEESt10_Select1stIS9_ESt4lessIS0_ESaIS9_EED1Ev
_ZNSt8_Rb_treeI25ccl_selection_border_typeS0_St9_IdentityIS0_ESt4lessIS0_ESaIS0_EE11_M_put_nodeEPSt13_Rb_tree_nodeIS0_E
_ZNSt8_Rb_treeI25ccl_selection_border_typeS0_St9_IdentityIS0_ESt4lessIS0_ESaIS0_EE13_Rb_tree_implIS4_Lb1EED1Ev
_ZNSt8_Rb_treeI25ccl_selection_border_typeS0_St9_IdentityIS0_ESt4lessIS0_ESaIS0_EE20_Reuse_or_alloc_nodeD1Ev
_ZNSt8_Rb_treeI25ccl_selection_border_typeS0_St9_IdentityIS0_ESt4lessIS0_ESaIS0_EE4findERKS0_
_ZNSt8_Rb_treeI25ccl_selection_border_typeS0_St9_IdentityIS0_ESt4lessIS0_ESaIS0_EE7_M_copyINS6_11_Alloc_nodeEEEPSt13_Rb_tree_nodeIS0_EPKSA_PSt18_Rb_tree_node_baseRT_
_ZNSt8_Rb_treeI25ccl_selection_border_typeS0_St9_IdentityIS0_ESt4lessIS0_ESaIS0_EE7_M_copyINS6_20_Reuse_or_alloc_nodeEEEPSt13_Rb_tree_nodeIS0_EPKSA_PSt18_Rb_tree_node_baseRT_
_ZNSt8_Rb_treeI25ccl_selection_border_typeS0_St9_IdentityIS0_ESt4lessIS0_ESaIS0_EE8_M_eraseEPSt13_Rb_tree_nodeIS0_E
_ZNSt8_Rb_treeI25ccl_selection_border_typeS0_St9_IdentityIS0_ESt4lessIS0_ESaIS0_EEaSERKS6_
_ZNSt8_Rb_treeI25ccl_selection_border_typeS0_St9_IdentityIS0_ESt4lessIS0_ESaIS0_EEC1ERKS6_
_ZNSt8_Rb_treeI25ccl_selection_border_typeS0_St9_IdentityIS0_ESt4lessIS0_ESaIS0_EED1Ev
_ZNSt8_Rb_treeI28ccl_coll_reduce_scatter_algoSt4pairIKS0_NSt7__cxx1112basic_stringIcSt11char_traitsIcESaIcEEEESt10_Select1stIS9_ESt4lessIS0_ESaIS9_EE11_M_put_nodeEPSt13_Rb_tree_nodeIS9_E
_ZNSt8_Rb_treeI28ccl_coll_reduce_scatter_algoSt4pairIKS0_NSt7__cxx1112basic_stringIcSt11char_traitsIcESaIcEEEESt10_Select1stIS9_ESt4lessIS0_ESaIS9_EE13_Rb_tree_implISD_Lb1EED1Ev
_ZNSt8_Rb_treeI28ccl_coll_reduce_scatter_algoSt4pairIKS0_NSt7__cxx1112basic_stringIcSt11char_traitsIcESaIcEEEESt10_Select1stIS9_ESt4lessIS0_ESaIS9_EE8_M_eraseEPSt13_Rb_tree_nodeIS9_E
_ZNSt8_Rb_treeI28ccl_coll_reduce_scatter_algoSt4pairIKS0_NSt7__cxx1112basic_stringIcSt11char_traitsIcESaIcEEEESt10_Select1stIS9_ESt4lessIS0_ESaIS9_EED1Ev
_ZNSt8_Rb_treeI30ccl_coll_sparse_allreduce_algoSt4pairIKS0_NSt7__cxx1112basic_stringIcSt11char_traitsIcESaIcEEEESt10_Select1stIS9_ESt4lessIS0_ESaIS9_EE11_M_put_nodeEPSt13_Rb_tree_nodeIS9_E
_ZNSt8_Rb_treeI30ccl_coll_sparse_allreduce_algoSt4pairIKS0_NSt7__cxx1112basic_stringIcSt11char_traitsIcESaIcEEEESt10_Select1stIS9_ESt4lessIS0_ESaIS9_EE13_Rb_tree_implISD_Lb1EED1Ev
_ZNSt8_Rb_treeI30ccl_coll_sparse_allreduce_algoSt4pairIKS0_NSt7__cxx1112basic_stringIcSt11char_traitsIcESaIcEEEESt10_Select1stIS9_ESt4lessIS0_ESaIS9_EE8_M_eraseEPSt13_Rb_tree_nodeIS9_E
_ZNSt8_Rb_treeI30ccl_coll_sparse_allreduce_algoSt4pairIKS0_NSt7__cxx1112basic_stringIcSt11char_traitsIcESaIcEEEESt10_Select1stIS9_ESt4lessIS0_ESaIS9_EED1Ev
_ZNSt8_Rb_treeIiSt4pairIKiN3ccl2v16deviceEESt10_Select1stIS5_ESt4lessIiESaIS5_EE11_M_put_nodeEPSt13_Rb_tree_nodeIS5_E
_ZNSt8_Rb_treeIiSt4pairIKiN3ccl2v16deviceEESt10_Select1stIS5_ESt4lessIiESaIS5_EE13_Rb_tree_implIS9_Lb1EED1Ev
_ZNSt8_Rb_treeIiSt4pairIKiN3ccl2v16deviceEESt10_Select1stIS5_ESt4lessIiESaIS5_EE8_M_eraseEPSt13_Rb_tree_nodeIS5_E
_ZNSt8_Rb_treeIiSt4pairIKiSt10shared_ptrIN6native10ccl_deviceEEESt10_Select1stIS6_ESt4lessIiESaIS6_EE11_M_put_nodeEPSt13_Rb_tree_nodeIS6_E
_ZNSt8_Rb_treeIiSt4pairIKiSt10shared_ptrIN6native10ccl_deviceEEESt10_Select1stIS6_ESt4lessIiESaIS6_EE13_Rb_tree_implISA_Lb1EED1Ev
_ZNSt8_Rb_treeIiSt4pairIKiSt10shared_ptrIN6native10ccl_deviceEEESt10_Select1stIS6_ESt4lessIiESaIS6_EE8_M_eraseEPSt13_Rb_tree_nodeIS6_E
_ZNSt8_Rb_treeImSt4pairIKmS0_I19ccl_coll_bcast_algo25ccl_selection_border_typeEESt10_Select1stIS5_ESt4lessImESaIS5_EE11lower_boundERS1_
_ZNSt8_Rb_treeImSt4pairIKmS0_I19ccl_coll_bcast_algo25ccl_selection_border_typeEESt10_Select1stIS5_ESt4lessImESaIS5_EE11_M_put_nodeEPSt13_Rb_tree_nodeIS5_E
_ZNSt8_Rb_treeImSt4pairIKmS0_I19ccl_coll_bcast_algo25ccl_selection_border_typeEESt10_Select1stIS5_ESt4lessImESaIS5_EE12_M_drop_nodeEPSt13_Rb_tree_nodeIS5_E
_ZNSt8_Rb_treeImSt4pairIKmS0_I19ccl_coll_bcast_algo25ccl_selection_border_typeEESt10_Select1stIS5_ESt4lessImESaIS5_EE13_Rb_tree_implIS9_Lb1EED1Ev
_ZNSt8_Rb_treeImSt4pairIKmS0_I19ccl_coll_bcast_algo25ccl_selection_border_typeEESt10_Select1stIS5_ESt4lessImESaIS5_EE4findERS1_
_ZNSt8_Rb_treeImSt4pairIKmS0_I19ccl_coll_bcast_algo25ccl_selection_border_typeEESt10_Select1stIS5_ESt4lessImESaIS5_EE5eraseB5cxx11ESt17_Rb_tree_iteratorIS5_E
_ZNSt8_Rb_treeImSt4pairIKmS0_I19ccl_coll_bcast_algo25ccl_selection_border_typeEESt10_Select1stIS5_ESt4lessImESaIS5_EE8_M_eraseEPSt13_Rb_tree_nodeIS5_E
_ZNSt8_Rb_treeImSt4pairIKmS0_I20ccl_coll_reduce_algo25ccl_selection_border_typeEESt10_Select1stIS5_ESt4lessImESaIS5_EE11lower_boundERS1_
_ZNSt8_Rb_treeImSt4pairIKmS0_I20ccl_coll_reduce_algo25ccl_selection_border_typeEESt10_Select1stIS5_ESt4lessImESaIS5_EE11_M_put_nodeEPSt13_Rb_tree_nodeIS5_E
_ZNSt8_Rb_treeImSt4pairIKmS0_I20ccl_coll_reduce_algo25ccl_selection_border_typeEESt10_Select1stIS5_ESt4lessImESaIS5_EE12_M_drop_nodeEPSt13_Rb_tree_nodeIS5_E
_ZNSt8_Rb_treeImSt4pairIKmS0_I20ccl_coll_reduce_algo25ccl_selection_border_typeEESt10_Select1stIS5_ESt4lessImESaIS5_EE13_Rb_tree_implIS9_Lb1EED1Ev
_ZNSt8_Rb_treeImSt4pairIKmS0_I20ccl_coll_reduce_algo25ccl_selection_border_typeEESt10_Select1stIS5_ESt4lessImESaIS5_EE4findERS1_
_ZNSt8_Rb_treeImSt4pairIKmS0_I20ccl_coll_reduce_algo25ccl_selection_border_typeEESt10_Select1stIS5_ESt4lessImESaIS5_EE5eraseB5cxx11ESt17_Rb_tree_iteratorIS5_E
_ZNSt8_Rb_treeImSt4pairIKmS0_I20ccl_coll_reduce_algo25ccl_selection_border_typeEESt10_Select1stIS5_ESt4lessImESaIS5_EE8_M_eraseEPSt13_Rb_tree_nodeIS5_E
_ZNSt8_Rb_treeImSt4pairIKmS0_I21ccl_coll_barrier_algo25ccl_selection_border_typeEESt10_Select1stIS5_ESt4lessImESaIS5_EE11lower_boundERS1_
_ZNSt8_Rb_treeImSt4pairIKmS0_I21ccl_coll_barrier_algo25ccl_selection_border_typeEESt10_Select1stIS5_ESt4lessImESaIS5_EE11_M_put_nodeEPSt13_Rb_tree_nodeIS5_E
_ZNSt8_Rb_treeImSt4pairIKmS0_I21ccl_coll_barrier_algo25ccl_selection_border_typeEESt10_Select1stIS5_ESt4lessImESaIS5_EE12_M_drop_nodeEPSt13_Rb_tree_nodeIS5_E
_ZNSt8_Rb_treeImSt4pairIKmS0_I21ccl_coll_barrier_algo25ccl_selection_border_typeEESt10_Select1stIS5_ESt4lessImESaIS5_EE13_Rb_tree_implIS9_Lb1EED1Ev
_ZNSt8_Rb_treeImSt4pairIKmS0_I21ccl_coll_barrier_algo25ccl_selection_border_typeEESt10_Select1stIS5_ESt4lessImESaIS5_EE4findERS1_
_ZNSt8_Rb_treeImSt4pairIKmS0_I21ccl_coll_barrier_algo25ccl_selection_border_typeEESt10_Select1stIS5_ESt4lessImESaIS5_EE5eraseB5cxx11ESt17_Rb_tree_iteratorIS5_E
_ZNSt8_Rb_treeImSt4pairIKmS0_I21ccl_coll_barrier_algo25ccl_selection_border_typeEESt10_Select1stIS5_ESt4lessImESaIS5_EE8_M_eraseEPSt13_Rb_tree_nodeIS5_E
_ZNSt8_Rb_treeImSt4pairIKmS0_I22ccl_coll_alltoall_algo25ccl_selection_border_typeEESt10_Select1stIS5_ESt4lessImESaIS5_EE11lower_boundERS1_
_ZNSt8_Rb_treeImSt4pairIKmS0_I22ccl_coll_alltoall_algo25ccl_selection_border_typeEESt10_Select1stIS5_ESt4lessImESaIS5_EE11_M_put_nodeEPSt13_Rb_tree_nodeIS5_E
_ZNSt8_Rb_treeImSt4pairIKmS0_I22ccl_coll_alltoall_algo25ccl_selection_border_typeEESt10_Select1stIS5_ESt4lessImESaIS5_EE12_M_drop_nodeEPSt13_Rb_tree_nodeIS5_E
_ZNSt8_Rb_treeImSt4pairIKmS0_I22ccl_coll_alltoall_algo25ccl_selection_border_typeEESt10_Select1stIS5_ESt4lessImESaIS5_EE13_Rb_tree_implIS9_Lb1EED1Ev
_ZNSt8_Rb_treeImSt4pairIKmS0_I22ccl_coll_alltoall_algo25ccl_selection_border_typeEESt10_Select1stIS5_ESt4lessImESaIS5_EE4findERS1_
_ZNSt8_Rb_treeImSt4pairIKmS0_I22ccl_coll_alltoall_algo25ccl_selection_border_typeEESt10_Select1stIS5_ESt4lessImESaIS5_EE5eraseB5cxx11ESt17_Rb_tree_iteratorIS5_E
_ZNSt8_Rb_treeImSt4pairIKmS0_I22ccl_coll_alltoall_algo25ccl_selection_border_typeEESt10_Select1stIS5_ESt4lessImESaIS5_EE8_M_eraseEPSt13_Rb_tree_nodeIS5_E
_ZNSt8_Rb_treeImSt4pairIKmS0_I23ccl_coll_allreduce_algo25ccl_selection_border_typeEESt10_Select1stIS5_ESt4lessImESaIS5_EE11lower_boundERS1_
_ZNSt8_Rb_treeImSt4pairIKmS0_I23ccl_coll_allreduce_algo25ccl_selection_border_typeEESt10_Select1stIS5_ESt4lessImESaIS5_EE11_M_put_nodeEPSt13_Rb_tree_nodeIS5_E
_ZNSt8_Rb_treeImSt4pairIKmS0_I23ccl_coll_allreduce_algo25ccl_selection_border_typeEESt10_Select1stIS5_ESt4lessImESaIS5_EE12_M_drop_nodeEPSt13_Rb_tree_nodeIS5_E
_ZNSt8_Rb_treeImSt4pairIKmS0_I23ccl_coll_allreduce_algo25ccl_selection_border_typeEESt10_Select1stIS5_ESt4lessImESaIS5_EE13_Rb_tree_implIS9_Lb1EED1Ev
_ZNSt8_Rb_treeImSt4pairIKmS0_I23ccl_coll_allreduce_algo25ccl_selection_border_typeEESt10_Select1stIS5_ESt4lessImESaIS5_EE4findERS1_
_ZNSt8_Rb_treeImSt4pairIKmS0_I23ccl_coll_allreduce_algo25ccl_selection_border_typeEESt10_Select1stIS5_ESt4lessImESaIS5_EE5eraseB5cxx11ESt17_Rb_tree_iteratorIS5_E
_ZNSt8_Rb_treeImSt4pairIKmS0_I23ccl_coll_allreduce_algo25ccl_selection_border_typeEESt10_Select1stIS5_ESt4lessImESaIS5_EE8_M_eraseEPSt13_Rb_tree_nodeIS5_E
_ZNSt8_Rb_treeImSt4pairIKmS0_I23ccl_coll_alltoallv_algo25ccl_selection_border_typeEESt10_Select1stIS5_ESt4lessImESaIS5_EE11lower_boundERS1_
_ZNSt8_Rb_treeImSt4pairIKmS0_I23ccl_coll_alltoallv_algo25ccl_selection_border_typeEESt10_Select1stIS5_ESt4lessImESaIS5_EE11_M_put_nodeEPSt13_Rb_tree_nodeIS5_E
_ZNSt8_Rb_treeImSt4pairIKmS0_I23ccl_coll_alltoallv_algo25ccl_selection_border_typeEESt10_Select1stIS5_ESt4lessImESaIS5_EE12_M_drop_nodeEPSt13_Rb_tree_nodeIS5_E
_ZNSt8_Rb_treeImSt4pairIKmS0_I23ccl_coll_alltoallv_algo25ccl_selection_border_typeEESt10_Select1stIS5_ESt4lessImESaIS5_EE13_Rb_tree_implIS9_Lb1EED1Ev
_ZNSt8_Rb_treeImSt4pairIKmS0_I23ccl_coll_alltoallv_algo25ccl_selection_border_typeEESt10_Select1stIS5_ESt4lessImESaIS5_EE4findERS1_
_ZNSt8_Rb_treeImSt4pairIKmS0_I23ccl_coll_alltoallv_algo25ccl_selection_border_typeEESt10_Select1stIS5_ESt4lessImESaIS5_EE5eraseB5cxx11ESt17_Rb_tree_iteratorIS5_E
_ZNSt8_Rb_treeImSt4pairIKmS0_I23ccl_coll_alltoallv_algo25ccl_selection_border_typeEESt10_Select1stIS5_ESt4lessImESaIS5_EE8_M_eraseEPSt13_Rb_tree_nodeIS5_E
_ZNSt8_Rb_treeImSt4pairIKmS0_I24ccl_coll_allgatherv_algo25ccl_selection_border_typeEESt10_Select1stIS5_ESt4lessImESaIS5_EE11lower_boundERS1_
_ZNSt8_Rb_treeImSt4pairIKmS0_I24ccl_coll_allgatherv_algo25ccl_selection_border_typeEESt10_Select1stIS5_ESt4lessImESaIS5_EE11_M_put_nodeEPSt13_Rb_tree_nodeIS5_E
_ZNSt8_Rb_treeImSt4pairIKmS0_I24ccl_coll_allgatherv_algo25ccl_selection_border_typeEESt10_Select1stIS5_ESt4lessImESaIS5_EE12_M_drop_nodeEPSt13_Rb_tree_nodeIS5_E
_ZNSt8_Rb_treeImSt4pairIKmS0_I24ccl_coll_allgatherv_algo25ccl_selection_border_typeEESt10_Select1stIS5_ESt4lessImESaIS5_EE13_Rb_tree_implIS9_Lb1EED1Ev
_ZNSt8_Rb_treeImSt4pairIKmS0_I24ccl_coll_allgatherv_algo25ccl_selection_border_typeEESt10_Select1stIS5_ESt4lessImESaIS5_EE4findERS1_
_ZNSt8_Rb_treeImSt4pairIKmS0_I24ccl_coll_allgatherv_algo25ccl_selection_border_typeEESt10_Select1stIS5_ESt4lessImESaIS5_EE5eraseB5cxx11ESt17_Rb_tree_iteratorIS5_E
_ZNSt8_Rb_treeImSt4pairIKmS0_I24ccl_coll_allgatherv_algo25ccl_selection_border_typeEESt10_Select1stIS5_ESt4lessImESaIS5_EE8_M_eraseEPSt13_Rb_tree_nodeIS5_E
_ZNSt8_Rb_treeImSt4pairIKmS0_I28ccl_coll_reduce_scatter_algo25ccl_selection_border_typeEESt10_Select1stIS5_ESt4lessImESaIS5_EE11lower_boundERS1_
_ZNSt8_Rb_treeImSt4pairIKmS0_I28ccl_coll_reduce_scatter_algo25ccl_selection_border_typeEESt10_Select1stIS5_ESt4lessImESaIS5_EE11_M_put_nodeEPSt13_Rb_tree_nodeIS5_E
_ZNSt8_Rb_treeImSt4pairIKmS0_I28ccl_coll_reduce_scatter_algo25ccl_selection_border_typeEESt10_Select1stIS5_ESt4lessImESaIS5_EE12_M_drop_nodeEPSt13_Rb_tree_nodeIS5_E
_ZNSt8_Rb_treeImSt4pairIKmS0_I28ccl_coll_reduce_scatter_algo25ccl_selection_border_typeEESt10_Select1stIS5_ESt4lessImESaIS5_EE13_Rb_tree_implIS9_Lb1EED1Ev
_ZNSt8_Rb_treeImSt4pairIKmS0_I28ccl_coll_reduce_scatter_algo25ccl_selection_border_typeEESt10_Select1stIS5_ESt4lessImESaIS5_EE4findERS1_
_ZNSt8_Rb_treeImSt4pairIKmS0_I28ccl_coll_reduce_scatter_algo25ccl_selection_border_typeEESt10_Select1stIS5_ESt4lessImESaIS5_EE5eraseB5cxx11ESt17_Rb_tree_iteratorIS5_E
_ZNSt8_Rb_treeImSt4pairIKmS0_I28ccl_coll_reduce_scatter_algo25ccl_selection_border_typeEESt10_Select1stIS5_ESt4lessImESaIS5_EE8_M_eraseEPSt13_Rb_tree_nodeIS5_E
_ZNSt8_Rb_treeImSt4pairIKmS0_I30ccl_coll_sparse_allreduce_algo25ccl_selection_border_typeEESt10_Select1stIS5_ESt4lessImESaIS5_EE11lower_boundERS1_
_ZNSt8_Rb_treeImSt4pairIKmS0_I30ccl_coll_sparse_allreduce_algo25ccl_selection_border_typeEESt10_Select1stIS5_ESt4lessImESaIS5_EE11_M_put_nodeEPSt13_Rb_tree_nodeIS5_E
_ZNSt8_Rb_treeImSt4pairIKmS0_I30ccl_coll_sparse_allreduce_algo25ccl_selection_border_typeEESt10_Select1stIS5_ESt4lessImESaIS5_EE12_M_drop_nodeEPSt13_Rb_tree_nodeIS5_E
_ZNSt8_Rb_treeImSt4pairIKmS0_I30ccl_coll_sparse_allreduce_algo25ccl_selection_border_typeEESt10_Select1stIS5_ESt4lessImESaIS5_EE13_Rb_tree_implIS9_Lb1EED1Ev
_ZNSt8_Rb_treeImSt4pairIKmS0_I30ccl_coll_sparse_allreduce_algo25ccl_selection_border_typeEESt10_Select1stIS5_ESt4lessImESaIS5_EE4findERS1_
_ZNSt8_Rb_treeImSt4pairIKmS0_I30ccl_coll_sparse_allreduce_algo25ccl_selection_border_typeEESt10_Select1stIS5_ESt4lessImESaIS5_EE5eraseB5cxx11ESt17_Rb_tree_iteratorIS5_E
_ZNSt8_Rb_treeImSt4pairIKmS0_I30ccl_coll_sparse_allreduce_algo25ccl_selection_border_typeEESt10_Select1stIS5_ESt4lessImESaIS5_EE8_M_eraseEPSt13_Rb_tree_nodeIS5_E
_ZNSt8_Rb_treeINSt7__cxx1112basic_stringIcSt11char_traitsIcESaIcEEESt4pairIKS5_P15ccl_extra_schedESt10_Select1stISA_ESt4lessIS5_ESaISA_EE11_M_put_nodeEPSt13_Rb_tree_nodeISA_E
_ZNSt8_Rb_treeINSt7__cxx1112basic_stringIcSt11char_traitsIcESaIcEEESt4pairIKS5_P15ccl_extra_schedESt10_Select1stISA_ESt4lessIS5_ESaISA_EE12_M_drop_nodeEPSt13_Rb_tree_nodeISA_E
_ZNSt8_Rb_treeINSt7__cxx1112basic_stringIcSt11char_traitsIcESaIcEEESt4pairIKS5_P15ccl_extra_schedESt10_Select1stISA_ESt4lessIS5_ESaISA_EE13_Rb_tree_implISE_Lb1EED1Ev
_ZNSt8_Rb_treeINSt7__cxx1112basic_stringIcSt11char_traitsIcESaIcEEESt4pairIKS5_P15ccl_extra_schedESt10_Select1stISA_ESt4lessIS5_ESaISA_EE8_M_eraseEPSt13_Rb_tree_nodeISA_E
_ZNSt8_Rb_treeItSt4pairIKtSt10shared_ptrIN3ccl10comm_groupEEESt10_Select1stIS6_ESt4lessItESaIS6_EE13_Rb_tree_implISA_Lb1EED1Ev
_ZNSt8_Rb_treeItSt4pairIKtSt10shared_ptrIN3ccl10comm_groupEEESt10_Select1stIS6_ESt4lessItESaIS6_EE8_M_eraseEPSt13_Rb_tree_nodeIS6_E
_ZTIN3ccl2v113kvs_interfaceE
_ZTIN3ccl2v13kvsE
_ZTISt14default_deleteI10ccl_streamE
_ZTISt14default_deleteIN3ccl22communicator_interfaceEE
_ZTISt15_Sp_counted_ptrIP15ccl_device_implLN9__gnu_cxx12_Lock_policyE2EE
_ZTISt15_Sp_counted_ptrIP16ccl_context_implLN9__gnu_cxx12_Lock_policyE2EE
_ZTISt15_Sp_counted_ptrIP8ccl_commLN9__gnu_cxx12_Lock_policyE2EE
_ZTISt15_Sp_counted_ptrIPN3ccl14init_attr_implELN9__gnu_cxx12_Lock_policyE2EE
_ZTISt15_Sp_counted_ptrIPN3ccl17ccl_kvs_attr_implELN9__gnu_cxx12_Lock_policyE2EE
_ZTISt15_Sp_counted_ptrIPN3ccl17host_communicatorELN9__gnu_cxx12_Lock_policyE2EE
_ZTISt15_Sp_counted_ptrIPN3ccl18ccl_comm_attr_implELN9__gnu_cxx12_Lock_policyE2EE
_ZTISt15_Sp_counted_ptrIPN3ccl22ccl_datatype_attr_implELN9__gnu_cxx12_Lock_policyE2EE
_ZTISt15_Sp_counted_ptrIPN3ccl22ccl_reduce_attr_impl_tELN9__gnu_cxx12_Lock_policyE2EE
_ZTISt15_Sp_counted_ptrIPN3ccl23ccl_barrier_attr_impl_tELN9__gnu_cxx12_Lock_policyE2EE
_ZTISt15_Sp_counted_ptrIPN3ccl24ccl_alltoall_attr_impl_tELN9__gnu_cxx12_Lock_policyE2EE
_ZTISt15_Sp_counted_ptrIPN3ccl24ccl_comm_split_attr_implELN9__gnu_cxx12_Lock_policyE2EE
_ZTISt15_Sp_counted_ptrIPN3ccl25ccl_allreduce_attr_impl_tELN9__gnu_cxx12_Lock_policyE2EE
_ZTISt15_Sp_counted_ptrIPN3ccl25ccl_alltoallv_attr_impl_tELN9__gnu_cxx12_Lock_policyE2EE
_ZTISt15_Sp_counted_ptrIPN3ccl25ccl_broadcast_attr_impl_tELN9__gnu_cxx12_Lock_policyE2EE
_ZTISt15_Sp_counted_ptrIPN3ccl26ccl_allgatherv_attr_impl_tELN9__gnu_cxx12_Lock_policyE2EE
_ZTISt15_Sp_counted_ptrIPN3ccl2v13kvsELN9__gnu_cxx12_Lock_policyE2EE
_ZTISt15_Sp_counted_ptrIPN3ccl30ccl_reduce_scatter_attr_impl_tELN9__gnu_cxx12_Lock_policyE2EE
_ZTISt15_Sp_counted_ptrIPN3ccl32ccl_sparse_allreduce_attr_impl_tELN9__gnu_cxx12_Lock_policyE2EE
_ZTISt19_Sp_counted_deleterIP10ccl_streamSt14default_deleteIS0_ESaIvELN9__gnu_cxx12_Lock_policyE2EE
_ZTISt19_Sp_counted_deleterIPN3ccl22communicator_interfaceESt14default_deleteIS1_ESaIvELN9__gnu_cxx12_Lock_policyE2EE
_ZTISt23_Sp_counted_ptr_inplaceI8ccl_commSaIS0_ELN9__gnu_cxx12_Lock_policyE2EE
_ZTISt23_Sp_counted_ptr_inplaceI9ccl_schedSaIS0_ELN9__gnu_cxx12_Lock_policyE2EE
_ZTSN3ccl2v113kvs_interfaceE
_ZTSN3ccl2v13kvsE
_ZTSSt14default_deleteI10ccl_streamE
_ZTSSt14default_deleteIN3ccl22communicator_interfaceEE
_ZTSSt15_Sp_counted_ptrIP15ccl_device_implLN9__gnu_cxx12_Lock_policyE2EE
_ZTSSt15_Sp_counted_ptrIP16ccl_context_implLN9__gnu_cxx12_Lock_policyE2EE
_ZTSSt15_Sp_counted_ptrIP8ccl_commLN9__gnu_cxx12_Lock_policyE2EE
_ZTSSt15_Sp_counted_ptrIPN3ccl14init_attr_implELN9__gnu_cxx12_Lock_policyE2EE
_ZTSSt15_Sp_counted_ptrIPN3ccl17ccl_kvs_attr_implELN9__gnu_cxx12_Lock_policyE2EE
_ZTSSt15_Sp_counted_ptrIPN3ccl17host_communicatorELN9__gnu_cxx12_Lock_policyE2EE
_ZTSSt15_Sp_counted_ptrIPN3ccl18ccl_comm_attr_implELN9__gnu_cxx12_Lock_policyE2EE
_ZTSSt15_Sp_counted_ptrIPN3ccl22ccl_datatype_attr_implELN9__gnu_cxx12_Lock_policyE2EE
_ZTSSt15_Sp_counted_ptrIPN3ccl22ccl_reduce_attr_impl_tELN9__gnu_cxx12_Lock_policyE2EE
_ZTSSt15_Sp_counted_ptrIPN3ccl23ccl_barrier_attr_impl_tELN9__gnu_cxx12_Lock_policyE2EE
_ZTSSt15_Sp_counted_ptrIPN3ccl24ccl_alltoall_attr_impl_tELN9__gnu_cxx12_Lock_policyE2EE
_ZTSSt15_Sp_counted_ptrIPN3ccl24ccl_comm_split_attr_implELN9__gnu_cxx12_Lock_policyE2EE
_ZTSSt15_Sp_counted_ptrIPN3ccl25ccl_allreduce_attr_impl_tELN9__gnu_cxx12_Lock_policyE2EE
_ZTSSt15_Sp_counted_ptrIPN3ccl25ccl_alltoallv_attr_impl_tELN9__gnu_cxx12_Lock_policyE2EE
_ZTSSt15_Sp_counted_ptrIPN3ccl25ccl_broadcast_attr_impl_tELN9__gnu_cxx12_Lock_policyE2EE
_ZTSSt15_Sp_counted_ptrIPN3ccl26ccl_allgatherv_attr_impl_tELN9__gnu_cxx12_Lock_policyE2EE
_ZTSSt15_Sp_counted_ptrIPN3ccl2v13kvsELN9__gnu_cxx12_Lock_policyE2EE
_ZTSSt15_Sp_counted_ptrIPN3ccl30ccl_reduce_scatter_attr_impl_tELN9__gnu_cxx12_Lock_policyE2EE
_ZTSSt15_Sp_counted_ptrIPN3ccl32ccl_sparse_allreduce_attr_impl_tELN9__gnu_cxx12_Lock_policyE2EE
_ZTSSt19_Sp_counted_deleterIP10ccl_streamSt14default_deleteIS0_ESaIvELN9__gnu_cxx12_Lock_policyE2EE
_ZTSSt19_Sp_counted_deleterIPN3ccl22communicator_interfaceESt14default_deleteIS1_ESaIvELN9__gnu_cxx12_Lock_policyE2EE
_ZTSSt23_Sp_counted_ptr_inplaceI8ccl_commSaIS0_ELN9__gnu_cxx12_Lock_policyE2EE
_ZTSSt23_Sp_counted_ptr_inplaceI9ccl_schedSaIS0_ELN9__gnu_cxx12_Lock_policyE2EE
_ZTVN3ccl2v113kvs_interfaceE
_ZTVN3ccl2v13kvsE
_ZTVSt15_Sp_counted_ptrIP15ccl_device_implLN9__gnu_cxx12_Lock_policyE2EE
_ZTVSt15_Sp_counted_ptrIP16ccl_context_implLN9__gnu_cxx12_Lock_policyE2EE
_ZTVSt15_Sp_counted_ptrIP8ccl_commLN9__gnu_cxx12_Lock_policyE2EE
_ZTVSt15_Sp_counted_ptrIPN3ccl14init_attr_implELN9__gnu_cxx12_Lock_policyE2EE
_ZTVSt15_Sp_counted_ptrIPN3ccl17ccl_kvs_attr_implELN9__gnu_cxx12_Lock_policyE2EE
_ZTVSt15_Sp_counted_ptrIPN3ccl17host_communicatorELN9__gnu_cxx12_Lock_policyE2EE
_ZTVSt15_Sp_counted_ptrIPN3ccl18ccl_comm_attr_implELN9__gnu_cxx12_Lock_policyE2EE
_ZTVSt15_Sp_counted_ptrIPN3ccl22ccl_datatype_attr_implELN9__gnu_cxx12_Lock_policyE2EE
_ZTVSt15_Sp_counted_ptrIPN3ccl22ccl_reduce_attr_impl_tELN9__gnu_cxx12_Lock_policyE2EE
_ZTVSt15_Sp_counted_ptrIPN3ccl23ccl_barrier_attr_impl_tELN9__gnu_cxx12_Lock_policyE2EE
_ZTVSt15_Sp_counted_ptrIPN3ccl24ccl_alltoall_attr_impl_tELN9__gnu_cxx12_Lock_policyE2EE
_ZTVSt15_Sp_counted_ptrIPN3ccl24ccl_comm_split_attr_implELN9__gnu_cxx12_Lock_policyE2EE
_ZTVSt15_Sp_counted_ptrIPN3ccl25ccl_allreduce_attr_impl_tELN9__gnu_cxx12_Lock_policyE2EE
_ZTVSt15_Sp_counted_ptrIPN3ccl25ccl_alltoallv_attr_impl_tELN9__gnu_cxx12_Lock_policyE2EE
_ZTVSt15_Sp_counted_ptrIPN3ccl25ccl_broadcast_attr_impl_tELN9__gnu_cxx12_Lock_policyE2EE
_ZTVSt15_Sp_counted_ptrIPN3ccl26ccl_allgatherv_attr_impl_tELN9__gnu_cxx12_Lock_policyE2EE
_ZTVSt15_Sp_counted_ptrIPN3ccl2v13kvsELN9__gnu_cxx12_Lock_policyE2EE
_ZTVSt15_Sp_counted_ptrIPN3ccl30ccl_reduce_scatter_attr_impl_tELN9__gnu_cxx12_Lock_policyE2EE
_ZTVSt15_Sp_counted_ptrIPN3ccl32ccl_sparse_allreduce_attr_impl_tELN9__gnu_cxx12_Lock_policyE2EE
_ZTVSt19_Sp_counted_deleterIP10ccl_streamSt14default_deleteIS0_ESaIvELN9__gnu_cxx12_Lock_policyE2EE
_ZTVSt19_Sp_counted_deleterIPN3ccl22communicator_interfaceESt14default_deleteIS1_ESaIvELN9__gnu_cxx12_Lock_policyE2EE
_ZTVSt23_Sp_counted_ptr_inplaceI8ccl_commSaIS0_ELN9__gnu_cxx12_Lock_policyE2EE
_ZTVSt23_Sp_counted_ptr_inplaceI9ccl_schedSaIS0_ELN9__gnu_cxx12_Lock_policyE2EE
